

HI-TECH Software PIC LITE Macro Assembler V9.71 build 6379 
                                                                                               Wed Sep 13 17:33:44 2017

HI-TECH Software Omniscient Code Generator (Lite mode) build 6379
     1  0000                     opt subtitle "HI-TECH Software Omniscient Code Generator (Lite mode) build 6379"
     2                           
     3                           opt pagewidth 120
     4                           
     5                           	opt lm
     6                           
     7                           	processor	16F877A
     8                           clrc	macro
     9                           	bcf	3,0
    10  0000                     	endm
    11                           clrz	macro
    12                           	bcf	3,2
    13  0000                     	endm
    14                           setc	macro
    15                           	bsf	3,0
    16  0000                     	endm
    17                           setz	macro
    18                           	bsf	3,2
    19  0000                     	endm
    20                           skipc	macro
    21                           	btfss	3,0
    22  0000                     	endm
    23                           skipz	macro
    24                           	btfss	3,2
    25  0000                     	endm
    26                           skipnc	macro
    27                           	btfsc	3,0
    28  0000                     	endm
    29                           skipnz	macro
    30                           	btfsc	3,2
    31  0000                     	endm
    32  0000                     indf	equ	0
    33  0000                     indf0	equ	0
    34  0002                     pc	equ	2
    35  0002                     pcl	equ	2
    36  0003                     status	equ	3
    37  0004                     fsr	equ	4
    38  0004                     fsr0	equ	4
    39  0001                     c	equ	1
    40  0000                     z	equ	0
    41  000A                     pclath	equ	10
    42                           	FNCALL	_main,_lcd_initialize
    43                           	FNCALL	_main,_keypad
    44                           	FNCALL	_lcd_initialize,_lcd_command
    45                           	FNCALL	_keypad,_lcd_data
    46                           	FNCALL	_keypad,_lcd_command
    47                           	FNCALL	_lcd_command,_delay
    48                           	FNCALL	_lcd_data,_delay
    49                           	FNROOT	_main
    50                           	global	_PORTD
    51                           psect	text98,local,class=CODE,delta=2
    52                           global __ptext98
    53  0000                     __ptext98:
    54  0008                     _PORTD	set	8
    55                           	global	_RB0
    56  0030                     _RB0	set	48
    57                           	global	_RB1
    58  0031                     _RB1	set	49
    59                           	global	_RB2
    60  0032                     _RB2	set	50
    61                           	global	_RB3
    62  0033                     _RB3	set	51
    63                           	global	_RB5
    64  0035                     _RB5	set	53
    65                           	global	_RB6
    66  0036                     _RB6	set	54
    67                           	global	_RB7
    68  0037                     _RB7	set	55
    69                           	global	_RD0
    70  0040                     _RD0	set	64
    71                           	global	_RD1
    72  0041                     _RD1	set	65
    73                           	global	_TRISB
    74  0086                     _TRISB	set	134
    75                           	global	_TRISD
    76  0088                     _TRISD	set	136
    77                           	global	_RW
    78  04A2                     _RW	set	1186
    79                           	file	"Keypad & LCD.as"
    80                           	line	#
    81                           psect cinit,class=CODE,delta=2
    82                           global start_initialization
    83  0635                     start_initialization:
    84                           
    85                           psect cinit,class=CODE,delta=2
    86                           global end_of_initialization
    87                           
    88                           ;End of C runtime variable initationation code
    89                           
    90  0635                     end_of_initialization:
    91  0635  0183               clrf status
    92  0636  120A  118A  2E4B   ljmp _main	;jump to C main() function
    93                           psect	cstackCOMMON,class=COMMON,space=1
    94                           global __pcstackCOMMON
    95  0070                     __pcstackCOMMON:
    96                           	global	?_lcd_command
    97  0070                     ?_lcd_command:	; 0 bytes @ 0x0
    98                           	global	?_keypad
    99  0070                     ?_keypad:	; 0 bytes @ 0x0
   100                           	global	?_delay
   101  0070                     ?_delay:	; 0 bytes @ 0x0
   102                           	global	?_lcd_data
   103  0070                     ?_lcd_data:	; 0 bytes @ 0x0
   104                           	global	?_main
   105  0070                     ?_main:	; 0 bytes @ 0x0
   106                           	global	?_lcd_initialize
   107  0070                     ?_lcd_initialize:	; 0 bytes @ 0x0
   108                           	global	delay@a
   109  0070                     delay@a:	; 2 bytes @ 0x0
   110  0070                     	ds	2
   111                           	global	??_lcd_command
   112  0072                     ??_lcd_command:	; 0 bytes @ 0x2
   113                           	global	??_delay
   114  0072                     ??_delay:	; 0 bytes @ 0x2
   115                           	global	??_lcd_data
   116  0072                     ??_lcd_data:	; 0 bytes @ 0x2
   117  0072                     	ds	2
   118                           	global	lcd_data@temp1
   119  0074                     lcd_data@temp1:	; 1 bytes @ 0x4
   120                           	global	lcd_command@temp
   121  0074                     lcd_command@temp:	; 1 bytes @ 0x4
   122  0074                     	ds	1
   123                           	global	lcd_command@command
   124  0075                     lcd_command@command:	; 1 bytes @ 0x5
   125                           	global	lcd_data@data
   126  0075                     lcd_data@data:	; 1 bytes @ 0x5
   127  0075                     	ds	1
   128                           	global	??_lcd_initialize
   129  0076                     ??_lcd_initialize:	; 0 bytes @ 0x6
   130                           	global	??_keypad
   131  0076                     ??_keypad:	; 0 bytes @ 0x6
   132                           	global	??_main
   133  0076                     ??_main:	; 0 bytes @ 0x6
   134 ;;Data sizes: Strings 0, constant 0, data 0, bss 0, persistent 0 stack 0
   135 ;;Auto spaces:   Size  Autos    Used
   136 ;; COMMON          14      6       6
   137 ;; BANK0           80      0       0
   138 ;; BANK1           80      0       0
   139 ;; BANK3           96      0       0
   140 ;; BANK2           96      0       0
   141                           
   142 ;;
   143 ;; Pointer list with targets:
   144                           
   145                           
   146                           
   147 ;; COMMON:	_lcd_initialize->_lcd_command
   148 ;; COMMON:	_keypad->_lcd_data
   149 ;; COMMON:	_keypad->_lcd_command
   150 ;; Critical Paths (_lcd_command)
   151 ;; COMMON:	_lcd_command->_delay
   152                           
   153 ;; Critical Paths (_lcd_data)
   154 ;; COMMON:	_lcd_data->_delay
   155                           
   156 ;;
   157 ;;Main: autosize = 0, tempsize = 0, incstack = 0, save=0
   158                           
   159 ;;
   160 ;;Call Graph Tables:
   161                           
   162 ;; ---------------------------------------------------------------------------------
   163 ;; (Depth) Function   	        Calls       Base Space   Used Autos Params    Refs
   164 ;; ---------------------------------------------------------------------------------
   165 ;; (2) _main                                                 0     0      0     180
   166 ;;                     _lcd_initialize
   167 ;;                             _keypad
   168 ;; ---------------------------------------------------------------------------------
   169 ;; (1) _lcd_initialize                                       0     0      0      60
   170 ;;                        _lcd_command
   171 ;; ---------------------------------------------------------------------------------
   172 ;; (1) _keypad                                               0     0      0     120
   173 ;;                           _lcd_data
   174 ;;                        _lcd_command
   175 ;; ---------------------------------------------------------------------------------
   176 ;; (0) _lcd_command                                          4     4      0      60
   177 ;;                                              2 COMMON     4     4      0
   178 ;;                              _delay
   179 ;; ---------------------------------------------------------------------------------
   180 ;; (0) _lcd_data                                             4     4      0      60
   181 ;;                                              2 COMMON     4     4      0
   182 ;;                              _delay
   183 ;; ---------------------------------------------------------------------------------
   184 ;; (4294967295) _delay                                       2     0      2      15
   185 ;;                                              0 COMMON     2     0      2
   186 ;; ---------------------------------------------------------------------------------
   187 ;; Estimated maximum call depth -1
   188 ;; ---------------------------------------------------------------------------------
   189                           
   190 ;; Call Graph Graphs:
   191                           
   192 ;; _lcd_command (ROOT)
   193 ;;   _delay
   194 ;;
   195 ;; _lcd_data (ROOT)
   196 ;;   _delay
   197 ;;
   198                           
   199 ;; Address spaces:
   200                           
   201 ;;Name               Size   Autos  Total    Cost      Usage
   202 ;;BITCOMMON            E      0       0       0        0.0%
   203 ;;EEDATA             100      0       0       0        0.0%
   204 ;;CODE                 0      0       0       0        0.0%
   205 ;;NULL                 0      0       0       0        0.0%
   206 ;;COMMON               E      6       6       1       42.9%
   207 ;;SFR0                 0      0       0       1        0.0%
   208 ;;BITSFR0              0      0       0       1        0.0%
   209 ;;BITSFR1              0      0       0       2        0.0%
   210 ;;SFR1                 0      0       0       2        0.0%
   211 ;;STACK                0      0       3       2        0.0%
   212 ;;BITBANK0            50      0       0       3        0.0%
   213 ;;BANK0               50      0       0       4        0.0%
   214 ;;SFR3                 0      0       0       4        0.0%
   215 ;;BITSFR3              0      0       0       4        0.0%
   216 ;;SFR2                 0      0       0       5        0.0%
   217 ;;BITSFR2              0      0       0       5        0.0%
   218 ;;DATA                 0      0       0       5        0.0%
   219 ;;BITBANK1            50      0       0       6        0.0%
   220 ;;BANK1               50      0       0       7        0.0%
   221 ;;BANK3               60      0       0       8        0.0%
   222 ;;BANK2               60      0       0       9        0.0%
   223 ;;ABS                  0      0       0      10        0.0%
   224 ;;BITBANK3            60      0       0      11        0.0%
   225 ;;BITBANK2            60      0       0      12        0.0%
   226                           
   227                           	global	_main
   228                           psect	maintext,global,class=CODE,delta=2
   229                           global __pmaintext
   230  064B                     __pmaintext:
   231                           
   232 ;; *************** function _main *****************
   233 ;; Defined at:
   234 ;;		line 82 in file "D:\TI\PIC course\Keypad & LCD\main.c"
   235 ;; Parameters:    Size  Location     Type
   236 ;;		None
   237 ;; Auto vars:     Size  Location     Type
   238 ;;		None
   239 ;; Return value:  Size  Location     Type
   240 ;;		None               void
   241 ;; Registers used:
   242 ;;		wreg, status,2, status,0, pclath, cstack
   243 ;; Tracked objects:
   244 ;;		On entry : 17F/0
   245 ;;		On exit  : 0/0
   246 ;;		Unchanged: 0/0
   247 ;; Data sizes:     COMMON   BANK0   BANK1   BANK3   BANK2
   248 ;;      Params:         0       0       0       0       0
   249 ;;      Locals:         0       0       0       0       0
   250 ;;      Temps:          0       0       0       0       0
   251 ;;      Totals:         0       0       0       0       0
   252 ;;Total ram usage:        0 bytes
   253 ;; Hardware stack levels required when called:    3
   254 ;; This function calls:
   255 ;;		_lcd_initialize
   256 ;;		_keypad
   257 ;; This function is called by:
   258 ;;		Startup code after reset
   259 ;; This function uses a non-reentrant model
   260 ;;
   261                           psect	maintext
   262                           	file	"D:\TI\PIC course\Keypad & LCD\main.c"
   263                           	line	82
   264                           	global	__size_of_main
   265  0015                     	__size_of_main	equ	__end_of_main-_main
   266                           	
   267  064B                     _main:	
   268                           	opt	stack 3
   269                           ; Regs used in _main: [wreg+status,2+status,0+pclath+cstack]
   270                           	line	83
   271                           	
   272  064B                     l1881:	
   273                           ;main.c: 83: TRISD=0X00;
   274  064B  1683               	bsf	status, 5	;RP0=1, select bank1
   275  064C  1303               	bcf	status, 6	;RP1=0, select bank1
   276  064D  0188               	clrf	(136)^080h	;volatile
   277                           	line	84
   278                           	
   279  064E                     l1883:	
   280                           ;main.c: 84: TRISB=0X70;
   281  064E  3070               	movlw	(070h)
   282  064F  1683               	bsf	status, 5	;RP0=1, select bank1
   283  0650  1303               	bcf	status, 6	;RP1=0, select bank1
   284  0651  0086               	movwf	(134)^080h	;volatile
   285                           	line	85
   286                           	
   287  0652                     l1885:	
   288                           ;main.c: 85: lcd_initialize();
   289  0652  120A  118A  2660   	fcall	_lcd_initialize
              120A  118A         
   290                           	line	86
   291                           ;main.c: 86: while(1)
   292                           	
   293  0657                     l631:	
   294                           	line	88
   295                           	
   296  0657                     l1887:	
   297                           ;main.c: 87: {
   298                           ;main.c: 88: keypad();
   299  0657  120A  118A  270B   	fcall	_keypad
              120A  118A         
   300                           	line	89
   301                           	
   302  065C                     l632:	
   303                           	line	86
   304  065C  2E57               	goto	l631
   305                           	
   306  065D                     l633:	
   307                           	line	90
   308                           	
   309  065D                     l634:	
   310                           	global	start
   311  065D  120A  118A  2800   	ljmp	start
   312                           	opt stack 0
   313                           GLOBAL	__end_of_main
   314  0660                     	__end_of_main:
   315 ;; =============== function _main ends ============
   316                           
   317                           	signat	_main,88
   318                           	global	_lcd_initialize
   319                           psect	text99,local,class=CODE,delta=2
   320                           global __ptext99
   321  0660                     __ptext99:
   322                           
   323 ;; *************** function _lcd_initialize *****************
   324 ;; Defined at:
   325 ;;		line 46 in file "D:\TI\PIC course\Keypad & LCD\LCD 4BIT.h"
   326 ;; Parameters:    Size  Location     Type
   327 ;;		None
   328 ;; Auto vars:     Size  Location     Type
   329 ;;		None
   330 ;; Return value:  Size  Location     Type
   331 ;;		None               void
   332 ;; Registers used:
   333 ;;		wreg, status,2, status,0, pclath, cstack
   334 ;; Tracked objects:
   335 ;;		On entry : 0/0
   336 ;;		On exit  : 0/0
   337 ;;		Unchanged: 0/0
   338 ;; Data sizes:     COMMON   BANK0   BANK1   BANK3   BANK2
   339 ;;      Params:         0       0       0       0       0
   340 ;;      Locals:         0       0       0       0       0
   341 ;;      Temps:          0       0       0       0       0
   342 ;;      Totals:         0       0       0       0       0
   343 ;;Total ram usage:        0 bytes
   344 ;; Hardware stack levels used:    1
   345 ;; Hardware stack levels required when called:    3
   346 ;; This function calls:
   347 ;;		_lcd_command
   348 ;; This function is called by:
   349 ;;		_main
   350 ;; This function uses a non-reentrant model
   351 ;;
   352                           psect	text99
   353                           	file	"D:\TI\PIC course\Keypad & LCD\LCD 4BIT.h"
   354                           	line	46
   355                           	global	__size_of_lcd_initialize
   356  0025                     	__size_of_lcd_initialize	equ	__end_of_lcd_initialize-_lcd_initialize
   357                           	
   358  0660                     _lcd_initialize:	
   359                           	opt	stack 2
   360                           ; Regs used in _lcd_initialize: [wreg+status,2+status,0+pclath+cstack]
   361                           	line	47
   362                           	
   363  0660                     l1879:	
   364                           ;LCD 4BIT.h: 47: lcd_command(0x02);
   365  0660  3002               	movlw	(02h)
   366  0661  120A  118A  2685   	fcall	_lcd_command
              120A  118A         
   367                           	line	48
   368                           ;LCD 4BIT.h: 48: lcd_command(0x2C);
   369  0666  302C               	movlw	(02Ch)
   370  0667  120A  118A  2685   	fcall	_lcd_command
              120A  118A         
   371                           	line	49
   372                           ;LCD 4BIT.h: 49: lcd_command(0x06);
   373  066C  3006               	movlw	(06h)
   374  066D  120A  118A  2685   	fcall	_lcd_command
              120A  118A         
   375                           	line	50
   376                           ;LCD 4BIT.h: 50: lcd_command(0x0c);
   377  0672  300C               	movlw	(0Ch)
   378  0673  120A  118A  2685   	fcall	_lcd_command
              120A  118A         
   379                           	line	51
   380                           ;LCD 4BIT.h: 51: lcd_command(0x01);
   381  0678  3001               	movlw	(01h)
   382  0679  120A  118A  2685   	fcall	_lcd_command
              120A  118A         
   383                           	line	52
   384                           ;LCD 4BIT.h: 52: lcd_command(0x80);
   385  067E  3080               	movlw	(080h)
   386  067F  120A  118A  2685   	fcall	_lcd_command
              120A  118A         
   387                           	line	53
   388                           	
   389  0684                     l571:	
   390  0684  0008               	return
   391                           	opt stack 0
   392                           GLOBAL	__end_of_lcd_initialize
   393  0685                     	__end_of_lcd_initialize:
   394 ;; =============== function _lcd_initialize ends ============
   395                           
   396                           	signat	_lcd_initialize,88
   397                           	global	_keypad
   398                           psect	text100,local,class=CODE,delta=2
   399                           global __ptext100
   400  070B                     __ptext100:
   401                           
   402 ;; *************** function _keypad *****************
   403 ;; Defined at:
   404 ;;		line 23 in file "D:\TI\PIC course\Keypad & LCD\main.c"
   405 ;; Parameters:    Size  Location     Type
   406 ;;		None
   407 ;; Auto vars:     Size  Location     Type
   408 ;;		None
   409 ;; Return value:  Size  Location     Type
   410 ;;		None               void
   411 ;; Registers used:
   412 ;;		wreg, status,2, status,0, pclath, cstack
   413 ;; Tracked objects:
   414 ;;		On entry : 0/0
   415 ;;		On exit  : 0/0
   416 ;;		Unchanged: 0/0
   417 ;; Data sizes:     COMMON   BANK0   BANK1   BANK3   BANK2
   418 ;;      Params:         0       0       0       0       0
   419 ;;      Locals:         0       0       0       0       0
   420 ;;      Temps:          0       0       0       0       0
   421 ;;      Totals:         0       0       0       0       0
   422 ;;Total ram usage:        0 bytes
   423 ;; Hardware stack levels used:    1
   424 ;; Hardware stack levels required when called:    3
   425 ;; This function calls:
   426 ;;		_lcd_data
   427 ;;		_lcd_command
   428 ;; This function is called by:
   429 ;;		_main
   430 ;; This function uses a non-reentrant model
   431 ;;
   432                           psect	text100
   433                           	file	"D:\TI\PIC course\Keypad & LCD\main.c"
   434                           	line	23
   435                           	global	__size_of_keypad
   436  00F5                     	__size_of_keypad	equ	__end_of_keypad-_keypad
   437                           	
   438  070B                     _keypad:	
   439                           	opt	stack 2
   440                           ; Regs used in _keypad: [wreg+status,2+status,0+pclath+cstack]
   441                           	line	24
   442                           	
   443  070B                     l1853:	
   444                           ;main.c: 24: RB0=1;RB1=0;RB2=0;RB3=0;
   445  070B  1283               	bcf	status, 5	;RP0=0, select bank0
   446  070C  1303               	bcf	status, 6	;RP1=0, select bank0
   447  070D  1406               	bsf	(48/8),(48)&7
   448  070E  1086               	bcf	(49/8),(49)&7
   449  070F  1106               	bcf	(50/8),(50)&7
   450  0710  1186               	bcf	(51/8),(51)&7
   451                           	line	25
   452                           ;main.c: 25: if(RB5==1)
   453  0711  1E86               	btfss	(53/8),(53)&7
   454  0712  2F14               	goto	u2181
   455  0713  2F15               	goto	u2180
   456  0714                     u2181:
   457  0714  2F22               	goto	l580
   458  0715                     u2180:
   459                           	line	27
   460                           	
   461  0715                     l1855:	
   462                           ;main.c: 26: {
   463                           ;main.c: 27: lcd_data('1');while(RB5);
   464  0715  3031               	movlw	(031h)
   465  0716  120A  118A  26C8   	fcall	_lcd_data
              120A  118A         
   466  071B  2F1C               	goto	l581
   467                           	
   468  071C                     l582:	
   469                           	
   470  071C                     l581:	
   471  071C  1283               	bcf	status, 5	;RP0=0, select bank0
   472  071D  1303               	bcf	status, 6	;RP1=0, select bank0
   473  071E  1A86               	btfsc	(53/8),(53)&7
   474  071F  2F21               	goto	u2191
   475  0720  2F22               	goto	u2190
   476  0721                     u2191:
   477  0721  2F1C               	goto	l582
   478  0722                     u2190:
   479                           	
   480  0722                     l583:	
   481                           	line	28
   482                           	
   483  0722                     l580:	
   484                           	line	29
   485                           ;main.c: 28: }
   486                           ;main.c: 29: if(RB6==1)
   487  0722  1283               	bcf	status, 5	;RP0=0, select bank0
   488  0723  1303               	bcf	status, 6	;RP1=0, select bank0
   489  0724  1F06               	btfss	(54/8),(54)&7
   490  0725  2F27               	goto	u2201
   491  0726  2F28               	goto	u2200
   492  0727                     u2201:
   493  0727  2F35               	goto	l584
   494  0728                     u2200:
   495                           	line	31
   496                           	
   497  0728                     l1857:	
   498                           ;main.c: 30: {
   499                           ;main.c: 31: lcd_data('2');while(RB6);
   500  0728  3032               	movlw	(032h)
   501  0729  120A  118A  26C8   	fcall	_lcd_data
              120A  118A         
   502  072E  2F2F               	goto	l585
   503                           	
   504  072F                     l586:	
   505                           	
   506  072F                     l585:	
   507  072F  1283               	bcf	status, 5	;RP0=0, select bank0
   508  0730  1303               	bcf	status, 6	;RP1=0, select bank0
   509  0731  1B06               	btfsc	(54/8),(54)&7
   510  0732  2F34               	goto	u2211
   511  0733  2F35               	goto	u2210
   512  0734                     u2211:
   513  0734  2F2F               	goto	l586
   514  0735                     u2210:
   515                           	
   516  0735                     l587:	
   517                           	line	32
   518                           	
   519  0735                     l584:	
   520                           	line	33
   521                           ;main.c: 32: }
   522                           ;main.c: 33: if(RB7==1)
   523  0735  1283               	bcf	status, 5	;RP0=0, select bank0
   524  0736  1303               	bcf	status, 6	;RP1=0, select bank0
   525  0737  1F86               	btfss	(55/8),(55)&7
   526  0738  2F3A               	goto	u2221
   527  0739  2F3B               	goto	u2220
   528  073A                     u2221:
   529  073A  2F48               	goto	l588
   530  073B                     u2220:
   531                           	line	35
   532                           	
   533  073B                     l1859:	
   534                           ;main.c: 34: {
   535                           ;main.c: 35: lcd_data('3');while(RB7);
   536  073B  3033               	movlw	(033h)
   537  073C  120A  118A  26C8   	fcall	_lcd_data
              120A  118A         
   538  0741  2F42               	goto	l589
   539                           	
   540  0742                     l590:	
   541                           	
   542  0742                     l589:	
   543  0742  1283               	bcf	status, 5	;RP0=0, select bank0
   544  0743  1303               	bcf	status, 6	;RP1=0, select bank0
   545  0744  1B86               	btfsc	(55/8),(55)&7
   546  0745  2F47               	goto	u2231
   547  0746  2F48               	goto	u2230
   548  0747                     u2231:
   549  0747  2F42               	goto	l590
   550  0748                     u2230:
   551                           	
   552  0748                     l591:	
   553                           	line	36
   554                           	
   555  0748                     l588:	
   556                           	line	38
   557                           ;main.c: 36: }
   558                           ;main.c: 38: RB0=0;RB1=1;RB2=0;RB3=0;
   559  0748  1283               	bcf	status, 5	;RP0=0, select bank0
   560  0749  1303               	bcf	status, 6	;RP1=0, select bank0
   561  074A  1006               	bcf	(48/8),(48)&7
   562  074B  1486               	bsf	(49/8),(49)&7
   563  074C  1106               	bcf	(50/8),(50)&7
   564  074D  1186               	bcf	(51/8),(51)&7
   565                           	line	39
   566                           ;main.c: 39: if(RB5==1)
   567  074E  1E86               	btfss	(53/8),(53)&7
   568  074F  2F51               	goto	u2241
   569  0750  2F52               	goto	u2240
   570  0751                     u2241:
   571  0751  2F5F               	goto	l592
   572  0752                     u2240:
   573                           	line	41
   574                           	
   575  0752                     l1861:	
   576                           ;main.c: 40: {
   577                           ;main.c: 41: lcd_data('4');while(RB5);
   578  0752  3034               	movlw	(034h)
   579  0753  120A  118A  26C8   	fcall	_lcd_data
              120A  118A         
   580  0758  2F59               	goto	l593
   581                           	
   582  0759                     l594:	
   583                           	
   584  0759                     l593:	
   585  0759  1283               	bcf	status, 5	;RP0=0, select bank0
   586  075A  1303               	bcf	status, 6	;RP1=0, select bank0
   587  075B  1A86               	btfsc	(53/8),(53)&7
   588  075C  2F5E               	goto	u2251
   589  075D  2F5F               	goto	u2250
   590  075E                     u2251:
   591  075E  2F59               	goto	l594
   592  075F                     u2250:
   593                           	
   594  075F                     l595:	
   595                           	line	42
   596                           	
   597  075F                     l592:	
   598                           	line	43
   599                           ;main.c: 42: }
   600                           ;main.c: 43: if(RB6==1)
   601  075F  1283               	bcf	status, 5	;RP0=0, select bank0
   602  0760  1303               	bcf	status, 6	;RP1=0, select bank0
   603  0761  1F06               	btfss	(54/8),(54)&7
   604  0762  2F64               	goto	u2261
   605  0763  2F65               	goto	u2260
   606  0764                     u2261:
   607  0764  2F72               	goto	l596
   608  0765                     u2260:
   609                           	line	45
   610                           	
   611  0765                     l1863:	
   612                           ;main.c: 44: {
   613                           ;main.c: 45: lcd_data('5');while(RB6);
   614  0765  3035               	movlw	(035h)
   615  0766  120A  118A  26C8   	fcall	_lcd_data
              120A  118A         
   616  076B  2F6C               	goto	l597
   617                           	
   618  076C                     l598:	
   619                           	
   620  076C                     l597:	
   621  076C  1283               	bcf	status, 5	;RP0=0, select bank0
   622  076D  1303               	bcf	status, 6	;RP1=0, select bank0
   623  076E  1B06               	btfsc	(54/8),(54)&7
   624  076F  2F71               	goto	u2271
   625  0770  2F72               	goto	u2270
   626  0771                     u2271:
   627  0771  2F6C               	goto	l598
   628  0772                     u2270:
   629                           	
   630  0772                     l599:	
   631                           	line	46
   632                           	
   633  0772                     l596:	
   634                           	line	47
   635                           ;main.c: 46: }
   636                           ;main.c: 47: if(RB7==1)
   637  0772  1283               	bcf	status, 5	;RP0=0, select bank0
   638  0773  1303               	bcf	status, 6	;RP1=0, select bank0
   639  0774  1F86               	btfss	(55/8),(55)&7
   640  0775  2F77               	goto	u2281
   641  0776  2F78               	goto	u2280
   642  0777                     u2281:
   643  0777  2F85               	goto	l600
   644  0778                     u2280:
   645                           	line	49
   646                           	
   647  0778                     l1865:	
   648                           ;main.c: 48: {
   649                           ;main.c: 49: lcd_data('6');while(RB7);
   650  0778  3036               	movlw	(036h)
   651  0779  120A  118A  26C8   	fcall	_lcd_data
              120A  118A         
   652  077E  2F7F               	goto	l601
   653                           	
   654  077F                     l602:	
   655                           	
   656  077F                     l601:	
   657  077F  1283               	bcf	status, 5	;RP0=0, select bank0
   658  0780  1303               	bcf	status, 6	;RP1=0, select bank0
   659  0781  1B86               	btfsc	(55/8),(55)&7
   660  0782  2F84               	goto	u2291
   661  0783  2F85               	goto	u2290
   662  0784                     u2291:
   663  0784  2F7F               	goto	l602
   664  0785                     u2290:
   665                           	
   666  0785                     l603:	
   667                           	line	50
   668                           	
   669  0785                     l600:	
   670                           	line	52
   671                           ;main.c: 50: }
   672                           ;main.c: 52: RB0=0;RB1=0;RB2=1;RB3=0;
   673  0785  1283               	bcf	status, 5	;RP0=0, select bank0
   674  0786  1303               	bcf	status, 6	;RP1=0, select bank0
   675  0787  1006               	bcf	(48/8),(48)&7
   676  0788  1086               	bcf	(49/8),(49)&7
   677  0789  1506               	bsf	(50/8),(50)&7
   678  078A  1186               	bcf	(51/8),(51)&7
   679                           	line	53
   680                           ;main.c: 53: if(RB5==1)
   681  078B  1E86               	btfss	(53/8),(53)&7
   682  078C  2F8E               	goto	u2301
   683  078D  2F8F               	goto	u2300
   684  078E                     u2301:
   685  078E  2F9C               	goto	l604
   686  078F                     u2300:
   687                           	line	55
   688                           	
   689  078F                     l1867:	
   690                           ;main.c: 54: {
   691                           ;main.c: 55: lcd_data('7');while(RB5);
   692  078F  3037               	movlw	(037h)
   693  0790  120A  118A  26C8   	fcall	_lcd_data
              120A  118A         
   694  0795  2F96               	goto	l605
   695                           	
   696  0796                     l606:	
   697                           	
   698  0796                     l605:	
   699  0796  1283               	bcf	status, 5	;RP0=0, select bank0
   700  0797  1303               	bcf	status, 6	;RP1=0, select bank0
   701  0798  1A86               	btfsc	(53/8),(53)&7
   702  0799  2F9B               	goto	u2311
   703  079A  2F9C               	goto	u2310
   704  079B                     u2311:
   705  079B  2F96               	goto	l606
   706  079C                     u2310:
   707                           	
   708  079C                     l607:	
   709                           	line	56
   710                           	
   711  079C                     l604:	
   712                           	line	57
   713                           ;main.c: 56: }
   714                           ;main.c: 57: if(RB6==1)
   715  079C  1283               	bcf	status, 5	;RP0=0, select bank0
   716  079D  1303               	bcf	status, 6	;RP1=0, select bank0
   717  079E  1F06               	btfss	(54/8),(54)&7
   718  079F  2FA1               	goto	u2321
   719  07A0  2FA2               	goto	u2320
   720  07A1                     u2321:
   721  07A1  2FAF               	goto	l608
   722  07A2                     u2320:
   723                           	line	59
   724                           	
   725  07A2                     l1869:	
   726                           ;main.c: 58: {
   727                           ;main.c: 59: lcd_data('8');while(RB6);
   728  07A2  3038               	movlw	(038h)
   729  07A3  120A  118A  26C8   	fcall	_lcd_data
              120A  118A         
   730  07A8  2FA9               	goto	l609
   731                           	
   732  07A9                     l610:	
   733                           	
   734  07A9                     l609:	
   735  07A9  1283               	bcf	status, 5	;RP0=0, select bank0
   736  07AA  1303               	bcf	status, 6	;RP1=0, select bank0
   737  07AB  1B06               	btfsc	(54/8),(54)&7
   738  07AC  2FAE               	goto	u2331
   739  07AD  2FAF               	goto	u2330
   740  07AE                     u2331:
   741  07AE  2FA9               	goto	l610
   742  07AF                     u2330:
   743                           	
   744  07AF                     l611:	
   745                           	line	60
   746                           	
   747  07AF                     l608:	
   748                           	line	61
   749                           ;main.c: 60: }
   750                           ;main.c: 61: if(RB7==1)
   751  07AF  1283               	bcf	status, 5	;RP0=0, select bank0
   752  07B0  1303               	bcf	status, 6	;RP1=0, select bank0
   753  07B1  1F86               	btfss	(55/8),(55)&7
   754  07B2  2FB4               	goto	u2341
   755  07B3  2FB5               	goto	u2340
   756  07B4                     u2341:
   757  07B4  2FC2               	goto	l612
   758  07B5                     u2340:
   759                           	line	63
   760                           	
   761  07B5                     l1871:	
   762                           ;main.c: 62: {
   763                           ;main.c: 63: lcd_data('9');while(RB7);
   764  07B5  3039               	movlw	(039h)
   765  07B6  120A  118A  26C8   	fcall	_lcd_data
              120A  118A         
   766  07BB  2FBC               	goto	l613
   767                           	
   768  07BC                     l614:	
   769                           	
   770  07BC                     l613:	
   771  07BC  1283               	bcf	status, 5	;RP0=0, select bank0
   772  07BD  1303               	bcf	status, 6	;RP1=0, select bank0
   773  07BE  1B86               	btfsc	(55/8),(55)&7
   774  07BF  2FC1               	goto	u2351
   775  07C0  2FC2               	goto	u2350
   776  07C1                     u2351:
   777  07C1  2FBC               	goto	l614
   778  07C2                     u2350:
   779                           	
   780  07C2                     l615:	
   781                           	line	64
   782                           	
   783  07C2                     l612:	
   784                           	line	66
   785                           ;main.c: 64: }
   786                           ;main.c: 66: RB0=0;RB1=0;RB2=0;RB3=1;
   787  07C2  1283               	bcf	status, 5	;RP0=0, select bank0
   788  07C3  1303               	bcf	status, 6	;RP1=0, select bank0
   789  07C4  1006               	bcf	(48/8),(48)&7
   790  07C5  1086               	bcf	(49/8),(49)&7
   791  07C6  1106               	bcf	(50/8),(50)&7
   792  07C7  1586               	bsf	(51/8),(51)&7
   793                           	line	67
   794                           ;main.c: 67: if(RB5==1)
   795  07C8  1E86               	btfss	(53/8),(53)&7
   796  07C9  2FCB               	goto	u2361
   797  07CA  2FCC               	goto	u2360
   798  07CB                     u2361:
   799  07CB  2FD9               	goto	l616
   800  07CC                     u2360:
   801                           	line	69
   802                           	
   803  07CC                     l1873:	
   804                           ;main.c: 68: {
   805                           ;main.c: 69: lcd_data('*');while(RB5);
   806  07CC  302A               	movlw	(02Ah)
   807  07CD  120A  118A  26C8   	fcall	_lcd_data
              120A  118A         
   808  07D2  2FD3               	goto	l617
   809                           	
   810  07D3                     l618:	
   811                           	
   812  07D3                     l617:	
   813  07D3  1283               	bcf	status, 5	;RP0=0, select bank0
   814  07D4  1303               	bcf	status, 6	;RP1=0, select bank0
   815  07D5  1A86               	btfsc	(53/8),(53)&7
   816  07D6  2FD8               	goto	u2371
   817  07D7  2FD9               	goto	u2370
   818  07D8                     u2371:
   819  07D8  2FD3               	goto	l618
   820  07D9                     u2370:
   821                           	
   822  07D9                     l619:	
   823                           	line	70
   824                           	
   825  07D9                     l616:	
   826                           	line	71
   827                           ;main.c: 70: }
   828                           ;main.c: 71: if(RB6==1)
   829  07D9  1283               	bcf	status, 5	;RP0=0, select bank0
   830  07DA  1303               	bcf	status, 6	;RP1=0, select bank0
   831  07DB  1F06               	btfss	(54/8),(54)&7
   832  07DC  2FDE               	goto	u2381
   833  07DD  2FDF               	goto	u2380
   834  07DE                     u2381:
   835  07DE  2FEC               	goto	l620
   836  07DF                     u2380:
   837                           	line	73
   838                           	
   839  07DF                     l1875:	
   840                           ;main.c: 72: {
   841                           ;main.c: 73: lcd_data('0');while(RB6);
   842  07DF  3030               	movlw	(030h)
   843  07E0  120A  118A  26C8   	fcall	_lcd_data
              120A  118A         
   844  07E5  2FE6               	goto	l621
   845                           	
   846  07E6                     l622:	
   847                           	
   848  07E6                     l621:	
   849  07E6  1283               	bcf	status, 5	;RP0=0, select bank0
   850  07E7  1303               	bcf	status, 6	;RP1=0, select bank0
   851  07E8  1B06               	btfsc	(54/8),(54)&7
   852  07E9  2FEB               	goto	u2391
   853  07EA  2FEC               	goto	u2390
   854  07EB                     u2391:
   855  07EB  2FE6               	goto	l622
   856  07EC                     u2390:
   857                           	
   858  07EC                     l623:	
   859                           	line	74
   860                           	
   861  07EC                     l620:	
   862                           	line	75
   863                           ;main.c: 74: }
   864                           ;main.c: 75: if(RB7==1)
   865  07EC  1283               	bcf	status, 5	;RP0=0, select bank0
   866  07ED  1303               	bcf	status, 6	;RP1=0, select bank0
   867  07EE  1F86               	btfss	(55/8),(55)&7
   868  07EF  2FF1               	goto	u2401
   869  07F0  2FF2               	goto	u2400
   870  07F1                     u2401:
   871  07F1  2FFF               	goto	l624
   872  07F2                     u2400:
   873                           	line	78
   874                           	
   875  07F2                     l1877:	
   876                           ;main.c: 76: {
   877                           ;main.c: 78: lcd_command(0x01);while(RB7);
   878  07F2  3001               	movlw	(01h)
   879  07F3  120A  118A  2685   	fcall	_lcd_command
              120A  118A         
   880  07F8  2FF9               	goto	l625
   881                           	
   882  07F9                     l626:	
   883                           	
   884  07F9                     l625:	
   885  07F9  1283               	bcf	status, 5	;RP0=0, select bank0
   886  07FA  1303               	bcf	status, 6	;RP1=0, select bank0
   887  07FB  1B86               	btfsc	(55/8),(55)&7
   888  07FC  2FFE               	goto	u2411
   889  07FD  2FFF               	goto	u2410
   890  07FE                     u2411:
   891  07FE  2FF9               	goto	l626
   892  07FF                     u2410:
   893                           	
   894  07FF                     l627:	
   895                           	line	79
   896                           	
   897  07FF                     l624:	
   898                           	line	80
   899                           	
   900  07FF                     l628:	
   901  07FF  0008               	return
   902                           	opt stack 0
   903                           GLOBAL	__end_of_keypad
   904  0800                     	__end_of_keypad:
   905 ;; =============== function _keypad ends ============
   906                           
   907                           	signat	_keypad,88
   908                           	global	_lcd_command
   909                           psect	text101,local,class=CODE,delta=2
   910                           global __ptext101
   911  0685                     __ptext101:
   912                           
   913 ;; *************** function _lcd_command *****************
   914 ;; Defined at:
   915 ;;		line 9 in file "D:\TI\PIC course\Keypad & LCD\LCD 4BIT.h"
   916 ;; Parameters:    Size  Location     Type
   917 ;;  command         1    wreg     unsigned char 
   918 ;; Auto vars:     Size  Location     Type
   919 ;;  command         1    5[COMMON] unsigned char 
   920 ;;  temp            1    4[COMMON] unsigned char 
   921 ;; Return value:  Size  Location     Type
   922 ;;		None               void
   923 ;; Registers used:
   924 ;;		wreg, status,2, status,0, pclath, cstack
   925 ;; Tracked objects:
   926 ;;		On entry : 0/0
   927 ;;		On exit  : 0/0
   928 ;;		Unchanged: 0/0
   929 ;; Data sizes:     COMMON   BANK0   BANK1   BANK3   BANK2
   930 ;;      Params:         0       0       0       0       0
   931 ;;      Locals:         2       0       0       0       0
   932 ;;      Temps:          2       0       0       0       0
   933 ;;      Totals:         4       0       0       0       0
   934 ;;Total ram usage:        4 bytes
   935 ;; Hardware stack levels used:    1
   936 ;; Hardware stack levels required when called:    2
   937 ;; This function calls:
   938 ;;		_delay
   939 ;; This function is called by:
   940 ;;		_lcd_initialize
   941 ;;		_keypad
   942 ;; This function uses a non-reentrant model
   943 ;;
   944                           psect	text101
   945                           	file	"D:\TI\PIC course\Keypad & LCD\LCD 4BIT.h"
   946                           	line	9
   947                           	global	__size_of_lcd_command
   948  0043                     	__size_of_lcd_command	equ	__end_of_lcd_command-_lcd_command
   949                           	
   950  0685                     _lcd_command:	
   951                           	opt	stack 1
   952                           ; Regs used in _lcd_command: [wreg+status,2+status,0+pclath+cstack]
   953                           ;lcd_command@command stored from wreg
   954                           	line	11
   955  0685  00F5               	movwf	(lcd_command@command)
   956                           	
   957  0686                     l1827:	
   958                           ;LCD 4BIT.h: 10: unsigned char temp;
   959                           ;LCD 4BIT.h: 11: PORTD=command&0xF0;
   960  0686  0875               	movf	(lcd_command@command),w
   961  0687  39F0               	andlw	0F0h
   962  0688  1283               	bcf	status, 5	;RP0=0, select bank0
   963  0689  1303               	bcf	status, 6	;RP1=0, select bank0
   964  068A  0088               	movwf	(8)	;volatile
   965                           	line	12
   966                           	
   967  068B                     l1829:	
   968                           ;LCD 4BIT.h: 12: RD0=0;
   969  068B  1283               	bcf	status, 5	;RP0=0, select bank0
   970  068C  1303               	bcf	status, 6	;RP1=0, select bank0
   971  068D  1008               	bcf	(64/8),(64)&7
   972                           	line	13
   973                           	
   974  068E                     l1831:	
   975                           ;LCD 4BIT.h: 13: RW=0;
   976  068E  1683               	bsf	status, 5	;RP0=1, select bank1
   977  068F  1303               	bcf	status, 6	;RP1=0, select bank1
   978  0690  1114               	bcf	(1186/8)^080h,(1186)&7
   979                           	line	14
   980                           	
   981  0691                     l1833:	
   982                           ;LCD 4BIT.h: 14: RD1=1;
   983  0691  1283               	bcf	status, 5	;RP0=0, select bank0
   984  0692  1303               	bcf	status, 6	;RP1=0, select bank0
   985  0693  1488               	bsf	(65/8),(65)&7
   986                           	line	15
   987                           	
   988  0694                     l1835:	
   989                           ;LCD 4BIT.h: 15: delay(200);
   990  0694  30C8               	movlw	low(0C8h)
   991  0695  00F0               	movwf	(?_delay)
   992  0696  3000               	movlw	high(0C8h)
   993  0697  00F1               	movwf	((?_delay))+1
   994  0698  120A  118A  2639   	fcall	_delay
              120A  118A         
   995                           	line	16
   996                           	
   997  069D                     l1837:	
   998                           ;LCD 4BIT.h: 16: RD1=0;
   999  069D  1283               	bcf	status, 5	;RP0=0, select bank0
  1000  069E  1303               	bcf	status, 6	;RP1=0, select bank0
  1001  069F  1088               	bcf	(65/8),(65)&7
  1002                           	line	17
  1003                           	
  1004  06A0                     l1839:	
  1005                           ;LCD 4BIT.h: 17: temp=command<<4;
  1006  06A0  0875               	movf	(lcd_command@command),w
  1007  06A1  00F2               	movwf	(??_lcd_command+0)+0
  1008  06A2  3003               	movlw	(04h)-1
  1009  06A3                     u2175:
  1010  06A3  1003               	clrc
  1011  06A4  0DF2               	rlf	(??_lcd_command+0)+0,f
  1012  06A5  3EFF               	addlw	-1
  1013  06A6  1D03               	skipz
  1014  06A7  2EA3               	goto	u2175
  1015  06A8  1003               	clrc
  1016  06A9  0D72               	rlf	(??_lcd_command+0)+0,w
  1017  06AA  00F3               	movwf	(??_lcd_command+1)+0
  1018  06AB  0873               	movf	(??_lcd_command+1)+0,w
  1019  06AC  00F4               	movwf	(lcd_command@temp)
  1020                           	line	18
  1021                           	
  1022  06AD                     l1841:	
  1023                           ;LCD 4BIT.h: 18: PORTD=temp&0xF0;
  1024  06AD  0874               	movf	(lcd_command@temp),w
  1025  06AE  39F0               	andlw	0F0h
  1026  06AF  1283               	bcf	status, 5	;RP0=0, select bank0
  1027  06B0  1303               	bcf	status, 6	;RP1=0, select bank0
  1028  06B1  0088               	movwf	(8)	;volatile
  1029                           	line	19
  1030                           	
  1031  06B2                     l1843:	
  1032                           ;LCD 4BIT.h: 19: RD0=0;
  1033  06B2  1283               	bcf	status, 5	;RP0=0, select bank0
  1034  06B3  1303               	bcf	status, 6	;RP1=0, select bank0
  1035  06B4  1008               	bcf	(64/8),(64)&7
  1036                           	line	20
  1037                           	
  1038  06B5                     l1845:	
  1039                           ;LCD 4BIT.h: 20: RW=0;
  1040  06B5  1683               	bsf	status, 5	;RP0=1, select bank1
  1041  06B6  1303               	bcf	status, 6	;RP1=0, select bank1
  1042  06B7  1114               	bcf	(1186/8)^080h,(1186)&7
  1043                           	line	21
  1044                           	
  1045  06B8                     l1847:	
  1046                           ;LCD 4BIT.h: 21: RD1=1;
  1047  06B8  1283               	bcf	status, 5	;RP0=0, select bank0
  1048  06B9  1303               	bcf	status, 6	;RP1=0, select bank0
  1049  06BA  1488               	bsf	(65/8),(65)&7
  1050                           	line	22
  1051                           	
  1052  06BB                     l1849:	
  1053                           ;LCD 4BIT.h: 22: delay(200);
  1054  06BB  30C8               	movlw	low(0C8h)
  1055  06BC  00F0               	movwf	(?_delay)
  1056  06BD  3000               	movlw	high(0C8h)
  1057  06BE  00F1               	movwf	((?_delay))+1
  1058  06BF  120A  118A  2639   	fcall	_delay
              120A  118A         
  1059                           	line	23
  1060                           	
  1061  06C4                     l1851:	
  1062                           ;LCD 4BIT.h: 23: RD1=0;
  1063  06C4  1283               	bcf	status, 5	;RP0=0, select bank0
  1064  06C5  1303               	bcf	status, 6	;RP1=0, select bank0
  1065  06C6  1088               	bcf	(65/8),(65)&7
  1066                           	line	25
  1067                           	
  1068  06C7                     l565:	
  1069  06C7  0008               	return
  1070                           	opt stack 0
  1071                           GLOBAL	__end_of_lcd_command
  1072  06C8                     	__end_of_lcd_command:
  1073 ;; =============== function _lcd_command ends ============
  1074                           
  1075                           	signat	_lcd_command,4216
  1076                           	global	_lcd_data
  1077                           psect	text102,local,class=CODE,delta=2
  1078                           global __ptext102
  1079  06C8                     __ptext102:
  1080                           
  1081 ;; *************** function _lcd_data *****************
  1082 ;; Defined at:
  1083 ;;		line 27 in file "D:\TI\PIC course\Keypad & LCD\LCD 4BIT.h"
  1084 ;; Parameters:    Size  Location     Type
  1085 ;;  data            1    wreg     unsigned char 
  1086 ;; Auto vars:     Size  Location     Type
  1087 ;;  data            1    5[COMMON] unsigned char 
  1088 ;;  temp1           1    4[COMMON] unsigned char 
  1089 ;; Return value:  Size  Location     Type
  1090 ;;		None               void
  1091 ;; Registers used:
  1092 ;;		wreg, status,2, status,0, pclath, cstack
  1093 ;; Tracked objects:
  1094 ;;		On entry : 0/0
  1095 ;;		On exit  : 0/0
  1096 ;;		Unchanged: 0/0
  1097 ;; Data sizes:     COMMON   BANK0   BANK1   BANK3   BANK2
  1098 ;;      Params:         0       0       0       0       0
  1099 ;;      Locals:         2       0       0       0       0
  1100 ;;      Temps:          2       0       0       0       0
  1101 ;;      Totals:         4       0       0       0       0
  1102 ;;Total ram usage:        4 bytes
  1103 ;; Hardware stack levels used:    1
  1104 ;; Hardware stack levels required when called:    2
  1105 ;; This function calls:
  1106 ;;		_delay
  1107 ;; This function is called by:
  1108 ;;		_keypad
  1109 ;;		_display
  1110 ;; This function uses a non-reentrant model
  1111 ;;
  1112                           psect	text102
  1113                           	file	"D:\TI\PIC course\Keypad & LCD\LCD 4BIT.h"
  1114                           	line	27
  1115                           	global	__size_of_lcd_data
  1116  0043                     	__size_of_lcd_data	equ	__end_of_lcd_data-_lcd_data
  1117                           	
  1118  06C8                     _lcd_data:	
  1119                           	opt	stack 1
  1120                           ; Regs used in _lcd_data: [wreg+status,2+status,0+pclath+cstack]
  1121                           ;lcd_data@data stored from wreg
  1122                           	line	29
  1123  06C8  00F5               	movwf	(lcd_data@data)
  1124                           	
  1125  06C9                     l1801:	
  1126                           ;LCD 4BIT.h: 28: unsigned char temp1;
  1127                           ;LCD 4BIT.h: 29: PORTD=data&0xF0;
  1128  06C9  0875               	movf	(lcd_data@data),w
  1129  06CA  39F0               	andlw	0F0h
  1130  06CB  1283               	bcf	status, 5	;RP0=0, select bank0
  1131  06CC  1303               	bcf	status, 6	;RP1=0, select bank0
  1132  06CD  0088               	movwf	(8)	;volatile
  1133                           	line	30
  1134                           	
  1135  06CE                     l1803:	
  1136                           ;LCD 4BIT.h: 30: RD0=1;
  1137  06CE  1283               	bcf	status, 5	;RP0=0, select bank0
  1138  06CF  1303               	bcf	status, 6	;RP1=0, select bank0
  1139  06D0  1408               	bsf	(64/8),(64)&7
  1140                           	line	31
  1141                           	
  1142  06D1                     l1805:	
  1143                           ;LCD 4BIT.h: 31: RW=0;
  1144  06D1  1683               	bsf	status, 5	;RP0=1, select bank1
  1145  06D2  1303               	bcf	status, 6	;RP1=0, select bank1
  1146  06D3  1114               	bcf	(1186/8)^080h,(1186)&7
  1147                           	line	32
  1148                           	
  1149  06D4                     l1807:	
  1150                           ;LCD 4BIT.h: 32: RD1=1;
  1151  06D4  1283               	bcf	status, 5	;RP0=0, select bank0
  1152  06D5  1303               	bcf	status, 6	;RP1=0, select bank0
  1153  06D6  1488               	bsf	(65/8),(65)&7
  1154                           	line	33
  1155                           	
  1156  06D7                     l1809:	
  1157                           ;LCD 4BIT.h: 33: delay(200);
  1158  06D7  30C8               	movlw	low(0C8h)
  1159  06D8  00F0               	movwf	(?_delay)
  1160  06D9  3000               	movlw	high(0C8h)
  1161  06DA  00F1               	movwf	((?_delay))+1
  1162  06DB  120A  118A  2639   	fcall	_delay
              120A  118A         
  1163                           	line	34
  1164                           	
  1165  06E0                     l1811:	
  1166                           ;LCD 4BIT.h: 34: RD1=0;
  1167  06E0  1283               	bcf	status, 5	;RP0=0, select bank0
  1168  06E1  1303               	bcf	status, 6	;RP1=0, select bank0
  1169  06E2  1088               	bcf	(65/8),(65)&7
  1170                           	line	35
  1171                           	
  1172  06E3                     l1813:	
  1173                           ;LCD 4BIT.h: 35: temp1=data<<4;
  1174  06E3  0875               	movf	(lcd_data@data),w
  1175  06E4  00F2               	movwf	(??_lcd_data+0)+0
  1176  06E5  3003               	movlw	(04h)-1
  1177  06E6                     u2165:
  1178  06E6  1003               	clrc
  1179  06E7  0DF2               	rlf	(??_lcd_data+0)+0,f
  1180  06E8  3EFF               	addlw	-1
  1181  06E9  1D03               	skipz
  1182  06EA  2EE6               	goto	u2165
  1183  06EB  1003               	clrc
  1184  06EC  0D72               	rlf	(??_lcd_data+0)+0,w
  1185  06ED  00F3               	movwf	(??_lcd_data+1)+0
  1186  06EE  0873               	movf	(??_lcd_data+1)+0,w
  1187  06EF  00F4               	movwf	(lcd_data@temp1)
  1188                           	line	36
  1189                           	
  1190  06F0                     l1815:	
  1191                           ;LCD 4BIT.h: 36: PORTD=temp1&0xF0;
  1192  06F0  0874               	movf	(lcd_data@temp1),w
  1193  06F1  39F0               	andlw	0F0h
  1194  06F2  1283               	bcf	status, 5	;RP0=0, select bank0
  1195  06F3  1303               	bcf	status, 6	;RP1=0, select bank0
  1196  06F4  0088               	movwf	(8)	;volatile
  1197                           	line	37
  1198                           	
  1199  06F5                     l1817:	
  1200                           ;LCD 4BIT.h: 37: RD0=1;
  1201  06F5  1283               	bcf	status, 5	;RP0=0, select bank0
  1202  06F6  1303               	bcf	status, 6	;RP1=0, select bank0
  1203  06F7  1408               	bsf	(64/8),(64)&7
  1204                           	line	38
  1205                           	
  1206  06F8                     l1819:	
  1207                           ;LCD 4BIT.h: 38: RW=0;
  1208  06F8  1683               	bsf	status, 5	;RP0=1, select bank1
  1209  06F9  1303               	bcf	status, 6	;RP1=0, select bank1
  1210  06FA  1114               	bcf	(1186/8)^080h,(1186)&7
  1211                           	line	39
  1212                           	
  1213  06FB                     l1821:	
  1214                           ;LCD 4BIT.h: 39: RD1=1;
  1215  06FB  1283               	bcf	status, 5	;RP0=0, select bank0
  1216  06FC  1303               	bcf	status, 6	;RP1=0, select bank0
  1217  06FD  1488               	bsf	(65/8),(65)&7
  1218                           	line	40
  1219                           	
  1220  06FE                     l1823:	
  1221                           ;LCD 4BIT.h: 40: delay(200);
  1222  06FE  30C8               	movlw	low(0C8h)
  1223  06FF  00F0               	movwf	(?_delay)
  1224  0700  3000               	movlw	high(0C8h)
  1225  0701  00F1               	movwf	((?_delay))+1
  1226  0702  120A  118A  2639   	fcall	_delay
              120A  118A         
  1227                           	line	41
  1228                           	
  1229  0707                     l1825:	
  1230                           ;LCD 4BIT.h: 41: RD1=0;
  1231  0707  1283               	bcf	status, 5	;RP0=0, select bank0
  1232  0708  1303               	bcf	status, 6	;RP1=0, select bank0
  1233  0709  1088               	bcf	(65/8),(65)&7
  1234                           	line	44
  1235                           	
  1236  070A                     l568:	
  1237  070A  0008               	return
  1238                           	opt stack 0
  1239                           GLOBAL	__end_of_lcd_data
  1240  070B                     	__end_of_lcd_data:
  1241 ;; =============== function _lcd_data ends ============
  1242                           
  1243                           	signat	_lcd_data,4216
  1244                           	global	_delay
  1245                           psect	text103,local,class=CODE,delta=2
  1246                           global __ptext103
  1247  0639                     __ptext103:
  1248                           
  1249 ;; *************** function _delay *****************
  1250 ;; Defined at:
  1251 ;;		line 4 in file "D:\TI\PIC course\Keypad & LCD\LCD 4BIT.h"
  1252 ;; Parameters:    Size  Location     Type
  1253 ;;  a               2    0[COMMON] unsigned int 
  1254 ;; Auto vars:     Size  Location     Type
  1255 ;;		None
  1256 ;; Return value:  Size  Location     Type
  1257 ;;		None               void
  1258 ;; Registers used:
  1259 ;;		wreg
  1260 ;; Tracked objects:
  1261 ;;		On entry : 0/0
  1262 ;;		On exit  : 0/0
  1263 ;;		Unchanged: 0/0
  1264 ;; Data sizes:     COMMON   BANK0   BANK1   BANK3   BANK2
  1265 ;;      Params:         2       0       0       0       0
  1266 ;;      Locals:         0       0       0       0       0
  1267 ;;      Temps:          0       0       0       0       0
  1268 ;;      Totals:         2       0       0       0       0
  1269 ;;Total ram usage:        2 bytes
  1270 ;; Hardware stack levels used:    1
  1271 ;; This function calls:
  1272 ;;		Nothing
  1273 ;; This function is called by:
  1274 ;;		_lcd_command
  1275 ;;		_lcd_data
  1276 ;; This function uses a non-reentrant model
  1277 ;;
  1278                           psect	text103
  1279                           	file	"D:\TI\PIC course\Keypad & LCD\LCD 4BIT.h"
  1280                           	line	4
  1281                           	global	__size_of_delay
  1282  0012                     	__size_of_delay	equ	__end_of_delay-_delay
  1283                           	
  1284  0639                     _delay:	
  1285                           	opt	stack 0
  1286                           ; Regs used in _delay: [wreg]
  1287                           	line	5
  1288                           	
  1289  0639                     l1557:	
  1290                           ;LCD 4BIT.h: 5: while(a--);
  1291  0639  2E3A               	goto	l559
  1292                           	
  1293  063A                     l560:	
  1294                           	
  1295  063A                     l559:	
  1296                           	
  1297  063A                     l1559:	
  1298  063A  3001               	movlw	low(01h)
  1299  063B  02F0               	subwf	(delay@a),f
  1300  063C  3000               	movlw	high(01h)
  1301  063D  1C03               	skipc
  1302  063E  03F1               	decf	(delay@a+1),f
  1303  063F  02F1               	subwf	(delay@a+1),f
  1304  0640  30FF               	movlw	high(0FFFFh)
  1305  0641  0671               	xorwf	((delay@a+1)),w
  1306  0642  1D03               	skipz
  1307  0643  2E46               	goto	u1475
  1308  0644  30FF               	movlw	low(0FFFFh)
  1309  0645  0670               	xorwf	((delay@a)),w
  1310  0646                     u1475:
  1311                           
  1312  0646  1D03               	skipz
  1313  0647  2E49               	goto	u1471
  1314  0648  2E4A               	goto	u1470
  1315  0649                     u1471:
  1316  0649  2E3A               	goto	l560
  1317  064A                     u1470:
  1318                           	
  1319  064A                     l561:	
  1320                           	line	6
  1321                           	
  1322  064A                     l562:	
  1323  064A  0008               	return
  1324                           	opt stack 0
  1325                           GLOBAL	__end_of_delay
  1326  064B                     	__end_of_delay:
  1327 ;; =============== function _delay ends ============
  1328                           
  1329                           	signat	_delay,4216
  1330                           psect	text104,local,class=CODE,delta=2
  1331                           global __ptext104
  1332  0000                     __ptext104:
  1333                           	global	btemp
  1334  007E                     	btemp set 07Eh
  1335                           
  1336                           	DABS	1,126,2	;btemp
  1337                           	global	wtemp0
  1338  007E                     	wtemp0 set btemp


HI-TECH Software PICC Macro Assembler V9.71 build 6379 
Symbol Table                                                                                   Wed Sep 13 17:33:44 2017

__size_of_lcd_initialize 0025           __size_of_delay 0012                       _RW 04A2  
                    l600 0785                      l601 077F                      l610 07A9  
                    l602 077F                      l611 07AF                      l603 0785  
                    l620 07EC                      l612 07C2                      l604 079C  
                    l621 07E6                      l613 07BC                      l605 0796  
                    l622 07E6                      l614 07BC                      l606 0796  
                    l623 07EC                      l615 07C2                      l607 079C  
                    l631 0657                      l560 063A                      l624 07FF  
                    l616 07D9                      l608 07AF                      l632 065C  
                    l561 064A                      l625 07F9                      l617 07D3  
                    l609 07A9                      l633 065D                      l562 064A  
                    l626 07F9                      l618 07D3                      l634 065D  
                    l627 07FF                      l619 07D9                      l571 0684  
                    l628 07FF                      l580 0722                      l565 06C7  
                    l581 071C                      l590 0742                      l582 071C  
                    l559 063A                      l591 0748                      l583 0722  
                    l568 070A                      l592 075F                      l584 0735  
                    l593 0759                      l585 072F                      l594 0759  
                    l586 072F                      l595 075F                      l587 0735  
                    l596 0772                      l588 0748                      l597 076C  
                    l589 0742                      l598 076C                      l599 0772  
                    _RB0 0030                      _RB1 0031                      _RB2 0032  
                    _RB3 0033                      _RD0 0040                      _RD1 0041  
                    _RB5 0035                      _RB6 0036                      _RB7 0037  
        __size_of_keypad 00F5                  ??_delay 0072                     l1801 06C9  
                   l1811 06E0                     l1803 06CE                     l1557 0639  
                   l1821 06FB                     l1813 06E3                     l1805 06D1  
                   l1559 063A                     l1823 06FE                     l1815 06F0  
                   l1807 06D4                     l1831 068E                     l1825 0707  
                   l1817 06F5                     l1809 06D7                     l1841 06AD  
                   l1833 0691                     l1819 06F8                     l1851 06C4  
                   l1843 06B2                     l1835 0694                     l1827 0686  
                   l1845 06B5                     l1837 069D                     l1829 068B  
                   l1861 0752                     l1853 070B                     l1847 06B8  
                   l1839 06A0                     l1871 07B5                     l1863 0765  
                   l1855 0715                     l1849 06BB                     l1873 07CC  
                   l1865 0778                     l1857 0728                     l1881 064B  
                   l1875 07DF                     l1867 078F                     l1859 073B  
                   l1883 064E                     l1877 07F2                     l1869 07A2  
                   l1885 0652                     l1879 0660                     l1887 0657  
     lcd_command@command 0075                 __ptext98 0000                 __ptext99 0660  
                   u2200 0728                     u2201 0727                     u2210 0735  
                   u2211 0734                     u2300 078F                     u2220 073B  
                   u2301 078E                     u2221 073A                     u2310 079C  
                   u2230 0748                     u2311 079B                     u2231 0747  
                   u2400 07F2                     u2320 07A2                     u2240 0752  
                   u2401 07F1                     u2321 07A1                     u2241 0751  
                   u2410 07FF                     u2330 07AF                     u2250 075F  
                   u2411 07FE                     u2331 07AE                     u2251 075E  
                   u2340 07B5                     u2260 0765                     u2180 0715  
                   u2165 06E6                     u2341 07B4                     u2261 0764  
                   u2181 0714                     u1470 064A                     u2350 07C2  
                   u2270 0772                     u2190 0722                     u1471 0649  
                   u2175 06A3                     u2351 07C1                     u2271 0771  
                   u2191 0721                     u2360 07CC                     u2280 0778  
                   u2361 07CB                     u2281 0777                     u2370 07D9  
                   u2290 0785                     u1475 0646                     u2371 07D8  
                   u2291 0784                     u2380 07DF                     u2381 07DE  
                   u2390 07EC                     u2391 07EB                 _lcd_data 06C8  
              ?_lcd_data 0070                     _main 064B                     btemp 007E  
             ??_lcd_data 0072                     start 0000      start_initialization 0635  
                ?_keypad 0070                 ??_keypad 0076        __size_of_lcd_data 0043  
                  ?_main 0070                __ptext100 070B                __ptext101 0685  
              __ptext102 06C8                __ptext103 0639                __ptext104 0000  
          __end_of_delay 064B                    _PORTD 0008                    _TRISB 0086  
                  _TRISD 0088           __pcstackCOMMON 0070                    _delay 0639  
            _lcd_command 0685      __end_of_lcd_command 06C8                    status 0003  
                  wtemp0 007E            __size_of_main 0015             ?_lcd_command 0070  
                 ??_main 0076               __pmaintext 064B     __size_of_lcd_command 0043  
         _lcd_initialize 0660          ?_lcd_initialize 0070                   ?_delay 0070  
        lcd_command@temp 0074             __end_of_main 0660         ??_lcd_initialize 0076  
   end_of_initialization 0635         __end_of_lcd_data 070B           __end_of_keypad 0800  
 __end_of_lcd_initialize 0685                   _keypad 070B                   delay@a 0070  
          ??_lcd_command 0072            lcd_data@temp1 0074             lcd_data@data 0075  
