opt subtitle "HI-TECH Software Omniscient Code Generator (Lite mode) build 6379"

opt pagewidth 120

	opt lm

	processor	16F877A
clrc	macro
	bcf	3,0
	endm
clrz	macro
	bcf	3,2
	endm
setc	macro
	bsf	3,0
	endm
setz	macro
	bsf	3,2
	endm
skipc	macro
	btfss	3,0
	endm
skipz	macro
	btfss	3,2
	endm
skipnc	macro
	btfsc	3,0
	endm
skipnz	macro
	btfsc	3,2
	endm
indf	equ	0
indf0	equ	0
pc	equ	2
pcl	equ	2
status	equ	3
fsr	equ	4
fsr0	equ	4
c	equ	1
z	equ	0
pclath	equ	10
# 4 "D:\TI\PIC course\single switch led\single switch.c"
	psect config,class=CONFIG,delta=2 ;#
# 4 "D:\TI\PIC course\single switch led\single switch.c"
	dw 0x3FFE&0x3F7F&0x3FFF&0x3FFB ;#
	FNCALL	_main,_delay
	FNROOT	_main
	global	_status
	global	_RB0
psect	maintext,global,class=CODE,delta=2
global __pmaintext
__pmaintext:
_RB0	set	48
	global	_RB1
_RB1	set	49
	global	_TRISB
_TRISB	set	134
	file	"single switch LED.as"
	line	#
psect cinit,class=CODE,delta=2
global start_initialization
start_initialization:

psect	bssCOMMON,class=COMMON,space=1
global __pbssCOMMON
__pbssCOMMON:
_status:
       ds      2

; Clear objects allocated to COMMON
psect cinit,class=CODE,delta=2
	clrf	((__pbssCOMMON)+0)&07Fh
	clrf	((__pbssCOMMON)+1)&07Fh
psect cinit,class=CODE,delta=2
global end_of_initialization

;End of C runtime variable initationation code

end_of_initialization:
clrf status
ljmp _main	;jump to C main() function
psect	cstackCOMMON,class=COMMON,space=1
global __pcstackCOMMON
__pcstackCOMMON:
	global	?_delay
?_delay:	; 0 bytes @ 0x0
	global	?_main
?_main:	; 0 bytes @ 0x0
	global	delay@a
delay@a:	; 2 bytes @ 0x0
	ds	2
	global	??_delay
??_delay:	; 0 bytes @ 0x2
	global	??_main
??_main:	; 0 bytes @ 0x2
;;Data sizes: Strings 0, constant 0, data 0, bss 2, persistent 0 stack 0
;;Auto spaces:   Size  Autos    Used
;; COMMON          14      2       4
;; BANK0           80      0       0
;; BANK1           80      0       0
;; BANK3           96      0       0
;; BANK2           96      0       0

;;
;; Pointer list with targets:



;; Critical Paths (_main)
;; COMMON:	_main->_delay

;;
;;Main: autosize = 0, tempsize = 0, incstack = 0, save=0

;;
;;Call Graph Tables:

;; ---------------------------------------------------------------------------------
;; (Depth) Function   	        Calls       Base Space   Used Autos Params    Refs
;; ---------------------------------------------------------------------------------
;; (0) _main                                                 0     0      0      15
;;                              _delay
;; ---------------------------------------------------------------------------------
;; (4294967295) _delay                                       2     0      2      15
;;                                              0 COMMON     2     0      2
;; ---------------------------------------------------------------------------------
;; Estimated maximum call depth -1
;; ---------------------------------------------------------------------------------

;; Call Graph Graphs:

;; _main (ROOT)
;;   _delay
;;

;; Address spaces:

;;Name               Size   Autos  Total    Cost      Usage
;;BITCOMMON            E      0       0       0        0.0%
;;EEDATA             100      0       0       0        0.0%
;;CODE                 0      0       0       0        0.0%
;;NULL                 0      0       0       0        0.0%
;;COMMON               E      2       4       1       28.6%
;;SFR0                 0      0       0       1        0.0%
;;BITSFR0              0      0       0       1        0.0%
;;BITSFR1              0      0       0       2        0.0%
;;SFR1                 0      0       0       2        0.0%
;;STACK                0      0       1       2        0.0%
;;BITBANK0            50      0       0       3        0.0%
;;BANK0               50      0       0       4        0.0%
;;SFR3                 0      0       0       4        0.0%
;;BITSFR3              0      0       0       4        0.0%
;;SFR2                 0      0       0       5        0.0%
;;BITSFR2              0      0       0       5        0.0%
;;DATA                 0      0       5       5        0.0%
;;BITBANK1            50      0       0       6        0.0%
;;BANK1               50      0       0       7        0.0%
;;BANK3               60      0       0       8        0.0%
;;BANK2               60      0       0       9        0.0%
;;ABS                  0      0       4      10        0.0%
;;BITBANK3            60      0       0      11        0.0%
;;BITBANK2            60      0       0      12        0.0%

	global	_main
psect	maintext

;; *************** function _main *****************
;; Defined at:
;;		line 10 in file "D:\TI\PIC course\single switch led\single switch.c"
;; Parameters:    Size  Location     Type
;;		None
;; Auto vars:     Size  Location     Type
;;		None
;; Return value:  Size  Location     Type
;;		None               void
;; Registers used:
;;		wreg, status,2, status,0, pclath, cstack
;; Tracked objects:
;;		On entry : 17F/0
;;		On exit  : 0/0
;;		Unchanged: 0/0
;; Data sizes:     COMMON   BANK0   BANK1   BANK3   BANK2
;;      Params:         0       0       0       0       0
;;      Locals:         0       0       0       0       0
;;      Temps:          0       0       0       0       0
;;      Totals:         0       0       0       0       0
;;Total ram usage:        0 bytes
;; Hardware stack levels required when called:    1
;; This function calls:
;;		_delay
;; This function is called by:
;;		Startup code after reset
;; This function uses a non-reentrant model
;;
psect	maintext
	file	"D:\TI\PIC course\single switch led\single switch.c"
	line	10
	global	__size_of_main
	__size_of_main	equ	__end_of_main-_main
	
_main:	
	opt	stack 1
; Regs used in _main: [wreg+status,2+status,0+pclath+cstack]
	line	11
	
l1733:	
;single switch.c: 11: TRISB=0xF0;
	movlw	(0F0h)
	bsf	status, 5	;RP0=1, select bank1
	bcf	status, 6	;RP1=0, select bank1
	movwf	(134)^080h	;volatile
	line	12
	
l1735:	
;single switch.c: 12: status,RB0=0;
	bcf	status, 5	;RP0=0, select bank0
	bcf	status, 6	;RP1=0, select bank0
	bcf	(48/8),(48)&7
	line	13
;single switch.c: 13: while(1)
	
l567:	
	line	15
	
l1737:	
;single switch.c: 14: {
;single switch.c: 15: if(status==0&&RB1==1)
	movf	((_status+1)),w
	iorwf	((_status)),w
	skipz
	goto	u2151
	goto	u2150
u2151:
	goto	l568
u2150:
	
l1739:	
	bcf	status, 5	;RP0=0, select bank0
	bcf	status, 6	;RP1=0, select bank0
	btfss	(49/8),(49)&7
	goto	u2161
	goto	u2160
u2161:
	goto	l568
u2160:
	line	16
	
l1741:	
;single switch.c: 16: { delay(10000);
	movlw	low(02710h)
	movwf	(?_delay)
	movlw	high(02710h)
	movwf	((?_delay))+1
	fcall	_delay
	line	17
	
l1743:	
;single switch.c: 17: if(RB1==1)
	bcf	status, 5	;RP0=0, select bank0
	bcf	status, 6	;RP1=0, select bank0
	btfss	(49/8),(49)&7
	goto	u2171
	goto	u2170
u2171:
	goto	l569
u2170:
	line	19
	
l1745:	
;single switch.c: 18: {
;single switch.c: 19: RB0=1;
	bcf	status, 5	;RP0=0, select bank0
	bcf	status, 6	;RP1=0, select bank0
	bsf	(48/8),(48)&7
	line	20
	
l1747:	
;single switch.c: 20: status=1;
	movlw	low(01h)
	movwf	(_status)
	movlw	high(01h)
	movwf	((_status))+1
	line	22
	
l569:	
	line	23
	
l568:	
	line	24
;single switch.c: 22: }
;single switch.c: 23: }
;single switch.c: 24: if(status==1&&RB1==1)
	movlw	01h
	xorwf	(_status),w
	iorwf	(_status+1),w
	skipz
	goto	u2181
	goto	u2180
u2181:
	goto	l570
u2180:
	
l1749:	
	bcf	status, 5	;RP0=0, select bank0
	bcf	status, 6	;RP1=0, select bank0
	btfss	(49/8),(49)&7
	goto	u2191
	goto	u2190
u2191:
	goto	l570
u2190:
	line	25
	
l1751:	
;single switch.c: 25: { delay(10000);
	movlw	low(02710h)
	movwf	(?_delay)
	movlw	high(02710h)
	movwf	((?_delay))+1
	fcall	_delay
	line	26
	
l1753:	
;single switch.c: 26: if(RB1==1)
	bcf	status, 5	;RP0=0, select bank0
	bcf	status, 6	;RP1=0, select bank0
	btfss	(49/8),(49)&7
	goto	u2201
	goto	u2200
u2201:
	goto	l571
u2200:
	line	28
	
l1755:	
;single switch.c: 27: {
;single switch.c: 28: RB0=0;
	bcf	status, 5	;RP0=0, select bank0
	bcf	status, 6	;RP1=0, select bank0
	bcf	(48/8),(48)&7
	line	29
	
l1757:	
;single switch.c: 29: status=0;
	movlw	low(0)
	movwf	(_status)
	movlw	high(0)
	movwf	((_status))+1
	line	32
	
l571:	
	line	33
	
l570:	
	line	34
	
l572:	
	line	13
	goto	l567
	
l573:	
	line	36
	
l574:	
	global	start
	ljmp	start
	opt stack 0
GLOBAL	__end_of_main
	__end_of_main:
;; =============== function _main ends ============

	signat	_main,88
	global	_delay
psect	text56,local,class=CODE,delta=2
global __ptext56
__ptext56:

;; *************** function _delay *****************
;; Defined at:
;;		line 6 in file "D:\TI\PIC course\single switch led\single switch.c"
;; Parameters:    Size  Location     Type
;;  a               2    0[COMMON] unsigned int 
;; Auto vars:     Size  Location     Type
;;		None
;; Return value:  Size  Location     Type
;;		None               void
;; Registers used:
;;		wreg
;; Tracked objects:
;;		On entry : 0/0
;;		On exit  : 0/0
;;		Unchanged: 0/0
;; Data sizes:     COMMON   BANK0   BANK1   BANK3   BANK2
;;      Params:         2       0       0       0       0
;;      Locals:         0       0       0       0       0
;;      Temps:          0       0       0       0       0
;;      Totals:         2       0       0       0       0
;;Total ram usage:        2 bytes
;; Hardware stack levels used:    1
;; This function calls:
;;		Nothing
;; This function is called by:
;;		_main
;; This function uses a non-reentrant model
;;
psect	text56
	file	"D:\TI\PIC course\single switch led\single switch.c"
	line	6
	global	__size_of_delay
	__size_of_delay	equ	__end_of_delay-_delay
	
_delay:	
	opt	stack 0
; Regs used in _delay: [wreg]
	
l1501:	
	goto	l561
	
l562:	
	
l561:	
	
l1503:	
	movlw	low(01h)
	subwf	(delay@a),f
	movlw	high(01h)
	skipc
	decf	(delay@a+1),f
	subwf	(delay@a+1),f
	movlw	high(0FFFFh)
	xorwf	((delay@a+1)),w
	skipz
	goto	u1535
	movlw	low(0FFFFh)
	xorwf	((delay@a)),w
u1535:

	skipz
	goto	u1531
	goto	u1530
u1531:
	goto	l562
u1530:
	
l563:	
	line	7
	
l564:	
	return
	opt stack 0
GLOBAL	__end_of_delay
	__end_of_delay:
;; =============== function _delay ends ============

	signat	_delay,4216
psect	text57,local,class=CODE,delta=2
global __ptext57
__ptext57:
	global	btemp
	btemp set 07Eh

	DABS	1,126,2	;btemp
	global	wtemp0
	wtemp0 set btemp
	end
