opt subtitle "HI-TECH Software Omniscient Code Generator (Lite mode) build 6738"

opt pagewidth 120

	opt lm

	processor	16F877A
clrc	macro
	bcf	3,0
	endm
clrz	macro
	bcf	3,2
	endm
setc	macro
	bsf	3,0
	endm
setz	macro
	bsf	3,2
	endm
skipc	macro
	btfss	3,0
	endm
skipz	macro
	btfss	3,2
	endm
skipnc	macro
	btfsc	3,0
	endm
skipnz	macro
	btfsc	3,2
	endm
indf	equ	0
indf0	equ	0
pc	equ	2
pcl	equ	2
status	equ	3
fsr	equ	4
fsr0	equ	4
c	equ	1
z	equ	0
pclath	equ	10
	FNCALL	_main,___awmod
	FNCALL	_main,___awdiv
	FNCALL	_main,_delay
	FNROOT	_main
	global	_seg
psect	idataBANK0,class=CODE,space=0,delta=2
global __pidataBANK0
__pidataBANK0:
	file	"C:\Users\blackrider\Desktop\PIC course\Multiplex 7seg\multiplex 7seg.c"
	line	9

;initializer for _seg
	retlw	03Fh
	retlw	06h
	retlw	05Bh
	retlw	04Fh
	retlw	066h
	retlw	06Dh
	retlw	07Dh
	retlw	07h
	retlw	07Fh
	retlw	06Fh
	global	_b
	global	_a
	global	_PORTC
_PORTC	set	7
	global	_PORTD
_PORTD	set	8
	global	_RC0
_RC0	set	56
	global	_RC1
_RC1	set	57
	global	_TRISC
_TRISC	set	135
	global	_TRISD
_TRISD	set	136
	file	"multiplexing 7seg.as"
	line	#
psect cinit,class=CODE,delta=2
global start_initialization
start_initialization:

psect	bssCOMMON,class=COMMON,space=1
global __pbssCOMMON
__pbssCOMMON:
_a:
       ds      2

psect	bssBANK0,class=BANK0,space=1
global __pbssBANK0
__pbssBANK0:
_b:
       ds      2

psect	dataBANK0,class=BANK0,space=1
global __pdataBANK0
__pdataBANK0:
	file	"C:\Users\blackrider\Desktop\PIC course\Multiplex 7seg\multiplex 7seg.c"
_seg:
       ds      10

; Clear objects allocated to COMMON
psect cinit,class=CODE,delta=2
	clrf	((__pbssCOMMON)+0)&07Fh
	clrf	((__pbssCOMMON)+1)&07Fh
; Clear objects allocated to BANK0
psect cinit,class=CODE,delta=2
	clrf	((__pbssBANK0)+0)&07Fh
	clrf	((__pbssBANK0)+1)&07Fh
global btemp
psect inittext,class=CODE,delta=2
global init_fetch,btemp
;	Called with low address in FSR and high address in W
init_fetch:
	movf btemp,w
	movwf pclath
	movf btemp+1,w
	movwf pc
global init_ram
;Called with:
;	high address of idata address in btemp 
;	low address of idata address in btemp+1 
;	low address of data in FSR
;	high address + 1 of data in btemp-1
init_ram:
	fcall init_fetch
	movwf indf,f
	incf fsr,f
	movf fsr,w
	xorwf btemp-1,w
	btfsc status,2
	retlw 0
	incf btemp+1,f
	btfsc status,2
	incf btemp,f
	goto init_ram
; Initialize objects allocated to BANK0
psect cinit,class=CODE,delta=2
global init_ram, __pidataBANK0
	bcf	status, 7	;select IRP bank0
	movlw low(__pdataBANK0+10)
	movwf btemp-1,f
	movlw high(__pidataBANK0)
	movwf btemp,f
	movlw low(__pidataBANK0)
	movwf btemp+1,f
	movlw low(__pdataBANK0)
	movwf fsr,f
	fcall init_ram
psect cinit,class=CODE,delta=2
global end_of_initialization

;End of C runtime variable initialization code

end_of_initialization:
clrf status
ljmp _main	;jump to C main() function
psect	cstackCOMMON,class=COMMON,space=1
global __pcstackCOMMON
__pcstackCOMMON:
	global	?_delay
?_delay:	; 0 bytes @ 0x0
	global	?_main
?_main:	; 0 bytes @ 0x0
	global	?___awdiv
?___awdiv:	; 2 bytes @ 0x0
	global	?___awmod
?___awmod:	; 2 bytes @ 0x0
	global	delay@a
delay@a:	; 2 bytes @ 0x0
	global	___awdiv@divisor
___awdiv@divisor:	; 2 bytes @ 0x0
	global	___awmod@divisor
___awmod@divisor:	; 2 bytes @ 0x0
	ds	2
	global	??_delay
??_delay:	; 0 bytes @ 0x2
	global	___awdiv@dividend
___awdiv@dividend:	; 2 bytes @ 0x2
	global	___awmod@dividend
___awmod@dividend:	; 2 bytes @ 0x2
	ds	2
	global	??___awdiv
??___awdiv:	; 0 bytes @ 0x4
	global	??___awmod
??___awmod:	; 0 bytes @ 0x4
	ds	1
	global	___awdiv@counter
___awdiv@counter:	; 1 bytes @ 0x5
	global	___awmod@counter
___awmod@counter:	; 1 bytes @ 0x5
	ds	1
	global	___awdiv@sign
___awdiv@sign:	; 1 bytes @ 0x6
	global	___awmod@sign
___awmod@sign:	; 1 bytes @ 0x6
	ds	1
	global	___awdiv@quotient
___awdiv@quotient:	; 2 bytes @ 0x7
	ds	2
	global	??_main
??_main:	; 0 bytes @ 0x9
	global	main@i
main@i:	; 2 bytes @ 0x9
	ds	2
;;Data sizes: Strings 0, constant 0, data 10, bss 4, persistent 0 stack 0
;;Auto spaces:   Size  Autos    Used
;; COMMON          14     11      13
;; BANK0           80      0      12
;; BANK1           80      0       0
;; BANK3           96      0       0
;; BANK2           96      0       0

;;
;; Pointer list with targets:

;; ?___awdiv	int  size(1) Largest target is 0
;;
;; ?___awmod	int  size(1) Largest target is 0
;;


;;
;; Critical Paths under _main in COMMON
;;
;;   _main->___awdiv
;;
;; Critical Paths under _main in BANK0
;;
;;   None.
;;
;; Critical Paths under _main in BANK1
;;
;;   None.
;;
;; Critical Paths under _main in BANK3
;;
;;   None.
;;
;; Critical Paths under _main in BANK2
;;
;;   None.

;;
;;Main: autosize = 0, tempsize = 0, incstack = 0, save=0
;;

;;
;;Call Graph Tables:
;;
;; ---------------------------------------------------------------------------------
;; (Depth) Function   	        Calls       Base Space   Used Autos Params    Refs
;; ---------------------------------------------------------------------------------
;; (0) _main                                                 2     2      0     708
;;                                              9 COMMON     2     2      0
;;                            ___awmod
;;                            ___awdiv
;;                              _delay
;; ---------------------------------------------------------------------------------
;; (1) ___awmod                                              7     3      4     296
;;                                              0 COMMON     7     3      4
;; ---------------------------------------------------------------------------------
;; (1) ___awdiv                                              9     5      4     300
;;                                              0 COMMON     9     5      4
;; ---------------------------------------------------------------------------------
;; (1) _delay                                                2     0      2      22
;;                                              0 COMMON     2     0      2
;; ---------------------------------------------------------------------------------
;; Estimated maximum stack depth 1
;; ---------------------------------------------------------------------------------

;; Call Graph Graphs:

;; _main (ROOT)
;;   ___awmod
;;   ___awdiv
;;   _delay
;;

;; Address spaces:

;;Name               Size   Autos  Total    Cost      Usage
;;BANK3               60      0       0       9        0.0%
;;BITBANK3            60      0       0       8        0.0%
;;SFR3                 0      0       0       4        0.0%
;;BITSFR3              0      0       0       4        0.0%
;;BANK2               60      0       0      11        0.0%
;;BITBANK2            60      0       0      10        0.0%
;;SFR2                 0      0       0       5        0.0%
;;BITSFR2              0      0       0       5        0.0%
;;SFR1                 0      0       0       2        0.0%
;;BITSFR1              0      0       0       2        0.0%
;;BANK1               50      0       0       7        0.0%
;;BITBANK1            50      0       0       6        0.0%
;;CODE                 0      0       0       0        0.0%
;;DATA                 0      0      1A      12        0.0%
;;ABS                  0      0      19       3        0.0%
;;NULL                 0      0       0       0        0.0%
;;STACK                0      0       1       2        0.0%
;;BANK0               50      0       C       5       15.0%
;;BITBANK0            50      0       0       4        0.0%
;;SFR0                 0      0       0       1        0.0%
;;BITSFR0              0      0       0       1        0.0%
;;COMMON               E      B       D       1       92.9%
;;BITCOMMON            E      0       0       0        0.0%
;;EEDATA             100      0       0       0        0.0%

	global	_main
psect	maintext,global,class=CODE,delta=2
global __pmaintext
__pmaintext:

;; *************** function _main *****************
;; Defined at:
;;		line 11 in file "C:\Users\blackrider\Desktop\PIC course\Multiplex 7seg\multiplex 7seg.c"
;; Parameters:    Size  Location     Type
;;		None
;; Auto vars:     Size  Location     Type
;;  i               2    9[COMMON] int 
;; Return value:  Size  Location     Type
;;		None               void
;; Registers used:
;;		wreg, fsr0l, fsr0h, status,2, status,0, btemp+1, pclath, cstack
;; Tracked objects:
;;		On entry : 17F/0
;;		On exit  : 0/0
;;		Unchanged: 0/0
;; Data sizes:     COMMON   BANK0   BANK1   BANK3   BANK2
;;      Params:         0       0       0       0       0
;;      Locals:         2       0       0       0       0
;;      Temps:          0       0       0       0       0
;;      Totals:         2       0       0       0       0
;;Total ram usage:        2 bytes
;; Hardware stack levels required when called:    1
;; This function calls:
;;		___awmod
;;		___awdiv
;;		_delay
;; This function is called by:
;;		Startup code after reset
;; This function uses a non-reentrant model
;;
psect	maintext
	file	"C:\Users\blackrider\Desktop\PIC course\Multiplex 7seg\multiplex 7seg.c"
	line	11
	global	__size_of_main
	__size_of_main	equ	__end_of_main-_main
	
_main:	
	opt	stack 7
; Regs used in _main: [wreg-fsr0h+status,2+status,0+btemp+1+pclath+cstack]
	line	12
	
l1873:	
;multiplex 7seg.c: 12: TRISD=0x00;
	bsf	status, 5	;RP0=1, select bank1
	bcf	status, 6	;RP1=0, select bank1
	clrf	(136)^080h	;volatile
	line	13
;multiplex 7seg.c: 13: TRISC=0x00;
	clrf	(135)^080h	;volatile
	line	14
;multiplex 7seg.c: 14: PORTD=0x00;
	bcf	status, 5	;RP0=0, select bank0
	bcf	status, 6	;RP1=0, select bank0
	clrf	(8)	;volatile
	line	15
;multiplex 7seg.c: 15: PORTC=0x00;
	clrf	(7)	;volatile
	goto	l1875
	line	16
;multiplex 7seg.c: 16: while(1)
	
l571:	
	line	18
	
l1875:	
;multiplex 7seg.c: 17: {
;multiplex 7seg.c: 18: for(int i=0;i<99;i++)
	movlw	low(0)
	movwf	(main@i)
	movlw	high(0)
	movwf	((main@i))+1
	
l1877:	
	movf	(main@i+1),w
	xorlw	80h
	movwf	btemp+1
	movlw	(high(063h))^80h
	subwf	btemp+1,w
	skipz
	goto	u2375
	movlw	low(063h)
	subwf	(main@i),w
u2375:

	skipc
	goto	u2371
	goto	u2370
u2371:
	goto	l1881
u2370:
	goto	l1875
	
l1879:	
	goto	l1875
	line	19
	
l572:	
	line	20
	
l1881:	
;multiplex 7seg.c: 19: {
;multiplex 7seg.c: 20: a=i%10;
	movlw	low(0Ah)
	movwf	(?___awmod)
	movlw	high(0Ah)
	movwf	((?___awmod))+1
	movf	(main@i+1),w
	clrf	1+(?___awmod)+02h
	addwf	1+(?___awmod)+02h
	movf	(main@i),w
	clrf	0+(?___awmod)+02h
	addwf	0+(?___awmod)+02h

	fcall	___awmod
	movf	(1+(?___awmod)),w
	clrf	(_a+1)
	addwf	(_a+1)
	movf	(0+(?___awmod)),w
	clrf	(_a)
	addwf	(_a)

	line	21
;multiplex 7seg.c: 21: b=i/10;
	movlw	low(0Ah)
	movwf	(?___awdiv)
	movlw	high(0Ah)
	movwf	((?___awdiv))+1
	movf	(main@i+1),w
	clrf	1+(?___awdiv)+02h
	addwf	1+(?___awdiv)+02h
	movf	(main@i),w
	clrf	0+(?___awdiv)+02h
	addwf	0+(?___awdiv)+02h

	fcall	___awdiv
	movf	(1+(?___awdiv)),w
	bcf	status, 5	;RP0=0, select bank0
	bcf	status, 6	;RP1=0, select bank0
	clrf	(_b+1)
	addwf	(_b+1)
	movf	(0+(?___awdiv)),w
	clrf	(_b)
	addwf	(_b)

	line	23
	
l1883:	
;multiplex 7seg.c: 23: PORTD=seg[a];
	movf	(_a),w
	addlw	_seg&0ffh
	movwf	fsr0
	bcf	status, 7	;select IRP bank0
	movf	indf,w
	movwf	(8)	;volatile
	line	24
	
l1885:	
;multiplex 7seg.c: 24: RC0=0;
	bcf	(56/8),(56)&7
	line	25
	
l1887:	
;multiplex 7seg.c: 25: delay(200000);
	movlw	low(0D40h)
	movwf	(?_delay)
	movlw	high(0D40h)
	movwf	((?_delay))+1
	fcall	_delay
	line	26
	
l1889:	
;multiplex 7seg.c: 26: RC0=1;
	bcf	status, 5	;RP0=0, select bank0
	bcf	status, 6	;RP1=0, select bank0
	bsf	(56/8),(56)&7
	line	28
;multiplex 7seg.c: 28: PORTD=seg[b];
	movf	(_b),w
	addlw	_seg&0ffh
	movwf	fsr0
	bcf	status, 7	;select IRP bank0
	movf	indf,w
	movwf	(8)	;volatile
	line	29
	
l1891:	
;multiplex 7seg.c: 29: RC1=0;
	bcf	(57/8),(57)&7
	line	30
	
l1893:	
;multiplex 7seg.c: 30: delay(200000);
	movlw	low(0D40h)
	movwf	(?_delay)
	movlw	high(0D40h)
	movwf	((?_delay))+1
	fcall	_delay
	line	31
	
l1895:	
;multiplex 7seg.c: 31: RC1=1;
	bcf	status, 5	;RP0=0, select bank0
	bcf	status, 6	;RP1=0, select bank0
	bsf	(57/8),(57)&7
	line	18
	
l1897:	
	movlw	low(01h)
	addwf	(main@i),f
	skipnc
	incf	(main@i+1),f
	movlw	high(01h)
	addwf	(main@i+1),f
	
l1899:	
	movf	(main@i+1),w
	xorlw	80h
	movwf	btemp+1
	movlw	(high(063h))^80h
	subwf	btemp+1,w
	skipz
	goto	u2385
	movlw	low(063h)
	subwf	(main@i),w
u2385:

	skipc
	goto	u2381
	goto	u2380
u2381:
	goto	l1881
u2380:
	goto	l1875
	
l573:	
	goto	l1875
	line	35
	
l574:	
	line	16
	goto	l1875
	
l575:	
	line	36
	
l576:	
	global	start
	ljmp	start
	opt stack 0
GLOBAL	__end_of_main
	__end_of_main:
;; =============== function _main ends ============

	signat	_main,88
	global	___awmod
psect	text95,local,class=CODE,delta=2
global __ptext95
__ptext95:

;; *************** function ___awmod *****************
;; Defined at:
;;		line 5 in file "C:\Program Files (x86)\HI-TECH Software\PICC\9.80\sources\awmod.c"
;; Parameters:    Size  Location     Type
;;  divisor         2    0[COMMON] int 
;;  dividend        2    2[COMMON] int 
;; Auto vars:     Size  Location     Type
;;  sign            1    6[COMMON] unsigned char 
;;  counter         1    5[COMMON] unsigned char 
;; Return value:  Size  Location     Type
;;                  2    0[COMMON] int 
;; Registers used:
;;		wreg, status,2, status,0
;; Tracked objects:
;;		On entry : 0/0
;;		On exit  : 0/0
;;		Unchanged: 0/0
;; Data sizes:     COMMON   BANK0   BANK1   BANK3   BANK2
;;      Params:         4       0       0       0       0
;;      Locals:         2       0       0       0       0
;;      Temps:          1       0       0       0       0
;;      Totals:         7       0       0       0       0
;;Total ram usage:        7 bytes
;; Hardware stack levels used:    1
;; This function calls:
;;		Nothing
;; This function is called by:
;;		_main
;; This function uses a non-reentrant model
;;
psect	text95
	file	"C:\Program Files (x86)\HI-TECH Software\PICC\9.80\sources\awmod.c"
	line	5
	global	__size_of___awmod
	__size_of___awmod	equ	__end_of___awmod-___awmod
	
___awmod:	
	opt	stack 7
; Regs used in ___awmod: [wreg+status,2+status,0]
	line	8
	
l1837:	
	clrc
	movlw	0
	btfsc	status,0
	movlw	1
	movwf	(___awmod@sign)
	line	9
	
l1839:	
	btfss	(___awmod@dividend+1),7
	goto	u2281
	goto	u2280
u2281:
	goto	l1843
u2280:
	line	10
	
l1841:	
	comf	(___awmod@dividend),f
	comf	(___awmod@dividend+1),f
	incf	(___awmod@dividend),f
	skipnz
	incf	(___awmod@dividend+1),f
	line	11
	clrf	(___awmod@sign)
	bsf	status,0
	rlf	(___awmod@sign),f
	goto	l1843
	line	12
	
l793:	
	line	13
	
l1843:	
	btfss	(___awmod@divisor+1),7
	goto	u2291
	goto	u2290
u2291:
	goto	l1847
u2290:
	line	14
	
l1845:	
	comf	(___awmod@divisor),f
	comf	(___awmod@divisor+1),f
	incf	(___awmod@divisor),f
	skipnz
	incf	(___awmod@divisor+1),f
	goto	l1847
	
l794:	
	line	15
	
l1847:	
	movf	(___awmod@divisor+1),w
	iorwf	(___awmod@divisor),w
	skipnz
	goto	u2301
	goto	u2300
u2301:
	goto	l1865
u2300:
	line	16
	
l1849:	
	clrf	(___awmod@counter)
	bsf	status,0
	rlf	(___awmod@counter),f
	line	17
	goto	l1855
	
l797:	
	line	18
	
l1851:	
	movlw	01h
	
u2315:
	clrc
	rlf	(___awmod@divisor),f
	rlf	(___awmod@divisor+1),f
	addlw	-1
	skipz
	goto	u2315
	line	19
	
l1853:	
	movlw	(01h)
	movwf	(??___awmod+0)+0
	movf	(??___awmod+0)+0,w
	addwf	(___awmod@counter),f
	goto	l1855
	line	20
	
l796:	
	line	17
	
l1855:	
	btfss	(___awmod@divisor+1),(15)&7
	goto	u2321
	goto	u2320
u2321:
	goto	l1851
u2320:
	goto	l1857
	
l798:	
	goto	l1857
	line	21
	
l799:	
	line	22
	
l1857:	
	movf	(___awmod@divisor+1),w
	subwf	(___awmod@dividend+1),w
	skipz
	goto	u2335
	movf	(___awmod@divisor),w
	subwf	(___awmod@dividend),w
u2335:
	skipc
	goto	u2331
	goto	u2330
u2331:
	goto	l1861
u2330:
	line	23
	
l1859:	
	movf	(___awmod@divisor),w
	subwf	(___awmod@dividend),f
	movf	(___awmod@divisor+1),w
	skipc
	decf	(___awmod@dividend+1),f
	subwf	(___awmod@dividend+1),f
	goto	l1861
	
l800:	
	line	24
	
l1861:	
	movlw	01h
	
u2345:
	clrc
	rrf	(___awmod@divisor+1),f
	rrf	(___awmod@divisor),f
	addlw	-1
	skipz
	goto	u2345
	line	25
	
l1863:	
	movlw	low(01h)
	subwf	(___awmod@counter),f
	btfss	status,2
	goto	u2351
	goto	u2350
u2351:
	goto	l1857
u2350:
	goto	l1865
	
l801:	
	goto	l1865
	line	26
	
l795:	
	line	27
	
l1865:	
	movf	(___awmod@sign),w
	skipz
	goto	u2360
	goto	l1869
u2360:
	line	28
	
l1867:	
	comf	(___awmod@dividend),f
	comf	(___awmod@dividend+1),f
	incf	(___awmod@dividend),f
	skipnz
	incf	(___awmod@dividend+1),f
	goto	l1869
	
l802:	
	line	29
	
l1869:	
	movf	(___awmod@dividend+1),w
	clrf	(?___awmod+1)
	addwf	(?___awmod+1)
	movf	(___awmod@dividend),w
	clrf	(?___awmod)
	addwf	(?___awmod)

	goto	l803
	
l1871:	
	line	30
	
l803:	
	return
	opt stack 0
GLOBAL	__end_of___awmod
	__end_of___awmod:
;; =============== function ___awmod ends ============

	signat	___awmod,8314
	global	___awdiv
psect	text96,local,class=CODE,delta=2
global __ptext96
__ptext96:

;; *************** function ___awdiv *****************
;; Defined at:
;;		line 5 in file "C:\Program Files (x86)\HI-TECH Software\PICC\9.80\sources\awdiv.c"
;; Parameters:    Size  Location     Type
;;  divisor         2    0[COMMON] int 
;;  dividend        2    2[COMMON] int 
;; Auto vars:     Size  Location     Type
;;  quotient        2    7[COMMON] int 
;;  sign            1    6[COMMON] unsigned char 
;;  counter         1    5[COMMON] unsigned char 
;; Return value:  Size  Location     Type
;;                  2    0[COMMON] int 
;; Registers used:
;;		wreg, status,2, status,0
;; Tracked objects:
;;		On entry : 0/0
;;		On exit  : 0/0
;;		Unchanged: 0/0
;; Data sizes:     COMMON   BANK0   BANK1   BANK3   BANK2
;;      Params:         4       0       0       0       0
;;      Locals:         4       0       0       0       0
;;      Temps:          1       0       0       0       0
;;      Totals:         9       0       0       0       0
;;Total ram usage:        9 bytes
;; Hardware stack levels used:    1
;; This function calls:
;;		Nothing
;; This function is called by:
;;		_main
;; This function uses a non-reentrant model
;;
psect	text96
	file	"C:\Program Files (x86)\HI-TECH Software\PICC\9.80\sources\awdiv.c"
	line	5
	global	__size_of___awdiv
	__size_of___awdiv	equ	__end_of___awdiv-___awdiv
	
___awdiv:	
	opt	stack 7
; Regs used in ___awdiv: [wreg+status,2+status,0]
	line	9
	
l1799:	
	clrc
	movlw	0
	btfsc	status,0
	movlw	1
	movwf	(___awdiv@sign)
	line	10
	
l1801:	
	btfss	(___awdiv@divisor+1),7
	goto	u2181
	goto	u2180
u2181:
	goto	l1805
u2180:
	line	11
	
l1803:	
	comf	(___awdiv@divisor),f
	comf	(___awdiv@divisor+1),f
	incf	(___awdiv@divisor),f
	skipnz
	incf	(___awdiv@divisor+1),f
	line	12
	clrf	(___awdiv@sign)
	bsf	status,0
	rlf	(___awdiv@sign),f
	goto	l1805
	line	13
	
l725:	
	line	14
	
l1805:	
	btfss	(___awdiv@dividend+1),7
	goto	u2191
	goto	u2190
u2191:
	goto	l726
u2190:
	line	15
	
l1807:	
	comf	(___awdiv@dividend),f
	comf	(___awdiv@dividend+1),f
	incf	(___awdiv@dividend),f
	skipnz
	incf	(___awdiv@dividend+1),f
	line	16
	
l1809:	
	movlw	(01h)
	movwf	(??___awdiv+0)+0
	movf	(??___awdiv+0)+0,w
	xorwf	(___awdiv@sign),f
	line	17
	
l726:	
	line	18
	movlw	low(0)
	movwf	(___awdiv@quotient)
	movlw	high(0)
	movwf	((___awdiv@quotient))+1
	line	19
	movf	(___awdiv@divisor+1),w
	iorwf	(___awdiv@divisor),w
	skipnz
	goto	u2201
	goto	u2200
u2201:
	goto	l1829
u2200:
	line	20
	
l1811:	
	clrf	(___awdiv@counter)
	bsf	status,0
	rlf	(___awdiv@counter),f
	line	21
	goto	l1817
	
l729:	
	line	22
	
l1813:	
	movlw	01h
	
u2215:
	clrc
	rlf	(___awdiv@divisor),f
	rlf	(___awdiv@divisor+1),f
	addlw	-1
	skipz
	goto	u2215
	line	23
	
l1815:	
	movlw	(01h)
	movwf	(??___awdiv+0)+0
	movf	(??___awdiv+0)+0,w
	addwf	(___awdiv@counter),f
	goto	l1817
	line	24
	
l728:	
	line	21
	
l1817:	
	btfss	(___awdiv@divisor+1),(15)&7
	goto	u2221
	goto	u2220
u2221:
	goto	l1813
u2220:
	goto	l1819
	
l730:	
	goto	l1819
	line	25
	
l731:	
	line	26
	
l1819:	
	movlw	01h
	
u2235:
	clrc
	rlf	(___awdiv@quotient),f
	rlf	(___awdiv@quotient+1),f
	addlw	-1
	skipz
	goto	u2235
	line	27
	movf	(___awdiv@divisor+1),w
	subwf	(___awdiv@dividend+1),w
	skipz
	goto	u2245
	movf	(___awdiv@divisor),w
	subwf	(___awdiv@dividend),w
u2245:
	skipc
	goto	u2241
	goto	u2240
u2241:
	goto	l1825
u2240:
	line	28
	
l1821:	
	movf	(___awdiv@divisor),w
	subwf	(___awdiv@dividend),f
	movf	(___awdiv@divisor+1),w
	skipc
	decf	(___awdiv@dividend+1),f
	subwf	(___awdiv@dividend+1),f
	line	29
	
l1823:	
	bsf	(___awdiv@quotient)+(0/8),(0)&7
	goto	l1825
	line	30
	
l732:	
	line	31
	
l1825:	
	movlw	01h
	
u2255:
	clrc
	rrf	(___awdiv@divisor+1),f
	rrf	(___awdiv@divisor),f
	addlw	-1
	skipz
	goto	u2255
	line	32
	
l1827:	
	movlw	low(01h)
	subwf	(___awdiv@counter),f
	btfss	status,2
	goto	u2261
	goto	u2260
u2261:
	goto	l1819
u2260:
	goto	l1829
	
l733:	
	goto	l1829
	line	33
	
l727:	
	line	34
	
l1829:	
	movf	(___awdiv@sign),w
	skipz
	goto	u2270
	goto	l1833
u2270:
	line	35
	
l1831:	
	comf	(___awdiv@quotient),f
	comf	(___awdiv@quotient+1),f
	incf	(___awdiv@quotient),f
	skipnz
	incf	(___awdiv@quotient+1),f
	goto	l1833
	
l734:	
	line	36
	
l1833:	
	movf	(___awdiv@quotient+1),w
	clrf	(?___awdiv+1)
	addwf	(?___awdiv+1)
	movf	(___awdiv@quotient),w
	clrf	(?___awdiv)
	addwf	(?___awdiv)

	goto	l735
	
l1835:	
	line	37
	
l735:	
	return
	opt stack 0
GLOBAL	__end_of___awdiv
	__end_of___awdiv:
;; =============== function ___awdiv ends ============

	signat	___awdiv,8314
	global	_delay
psect	text97,local,class=CODE,delta=2
global __ptext97
__ptext97:

;; *************** function _delay *****************
;; Defined at:
;;		line 5 in file "C:\Users\blackrider\Desktop\PIC course\Multiplex 7seg\multiplex 7seg.c"
;; Parameters:    Size  Location     Type
;;  a               2    0[COMMON] unsigned int 
;; Auto vars:     Size  Location     Type
;;		None
;; Return value:  Size  Location     Type
;;		None               void
;; Registers used:
;;		wreg
;; Tracked objects:
;;		On entry : 0/0
;;		On exit  : 0/0
;;		Unchanged: 0/0
;; Data sizes:     COMMON   BANK0   BANK1   BANK3   BANK2
;;      Params:         2       0       0       0       0
;;      Locals:         0       0       0       0       0
;;      Temps:          0       0       0       0       0
;;      Totals:         2       0       0       0       0
;;Total ram usage:        2 bytes
;; Hardware stack levels used:    1
;; This function calls:
;;		Nothing
;; This function is called by:
;;		_main
;; This function uses a non-reentrant model
;;
psect	text97
	file	"C:\Users\blackrider\Desktop\PIC course\Multiplex 7seg\multiplex 7seg.c"
	line	5
	global	__size_of_delay
	__size_of_delay	equ	__end_of_delay-_delay
	
_delay:	
	opt	stack 7
; Regs used in _delay: [wreg]
	line	6
	
l1795:	
;multiplex 7seg.c: 6: while(a--);
	goto	l1797
	
l566:	
	goto	l1797
	
l565:	
	
l1797:	
	movlw	low(01h)
	subwf	(delay@a),f
	movlw	high(01h)
	skipc
	decf	(delay@a+1),f
	subwf	(delay@a+1),f
	movlw	high(0FFFFh)
	xorwf	((delay@a+1)),w
	skipz
	goto	u2175
	movlw	low(0FFFFh)
	xorwf	((delay@a)),w
u2175:

	skipz
	goto	u2171
	goto	u2170
u2171:
	goto	l1797
u2170:
	goto	l568
	
l567:	
	line	7
	
l568:	
	return
	opt stack 0
GLOBAL	__end_of_delay
	__end_of_delay:
;; =============== function _delay ends ============

	signat	_delay,4216
psect	text98,local,class=CODE,delta=2
global __ptext98
__ptext98:
	global	btemp
	btemp set 07Eh

	DABS	1,126,2	;btemp
	global	wtemp0
	wtemp0 set btemp
	end
